
Discarded input sections

 .eh_frame      0x00000000       0x94 object_files/kernel/ckernel.o
 .eh_frame      0x00000000       0xe0 object_files/kernel/power_management.o
 .eh_frame      0x00000000       0xc4 object_files/kernel/pe.o
 .eh_frame      0x00000000       0x74 object_files/kernel/executable.o
 .eh_frame      0x00000000      0x288 object_files/kernel/userheap.o
 .eh_frame      0x00000000      0x198 object_files/kernel/events.o
 .eh_frame      0x00000000       0x8c object_files/kernel/syscall.o
 .eh_frame      0x00000000       0x70 object_files/kernel/dma.o
 .eh_frame      0x00000000      0x498 object_files/kernel/paging.o
 .eh_frame      0x00000000      0x1e4 object_files/kernel/timer.o
 .eh_frame      0x00000000      0x210 object_files/kernel/cpu.o
 .eh_frame      0x00000000      0x478 object_files/kernel/ipc.o
 .eh_frame      0x00000000      0x150 object_files/kernel/serial.o
 .eh_frame      0x00000000       0x9c object_files/kernel/descriptor_tables.o
 .eh_frame      0x00000000       0x64 object_files/kernel/cmos.o
 .eh_frame      0x00000000       0xa0 object_files/kernel/elf.o
 .eh_frame      0x00000000      0x2bc object_files/kernel/irq.o
 .eh_frame      0x00000000      0x2e0 object_files/kernel/pci.o
 .eh_frame      0x00000000      0x1f8 object_files/kernel/log.o
 .eh_frame      0x00000000       0x94 object_files/kernel/time.o
 .eh_frame      0x00000000      0x13c object_files/kernel/apic.o
 .eh_frame      0x00000000      0x10c object_files/kernel/kheap.o
 .eh_frame      0x00000000      0x224 object_files/kernel/acpi/acpi.o
 .eh_frame      0x00000000       0x44 object_files/kernel/acpi/fadt.o
 .eh_frame      0x00000000       0x48 object_files/kernel/acpi/madt.o
 .eh_frame      0x00000000       0x94 object_files/kernel/audio/wav.o
 .eh_frame      0x00000000       0x38 object_files/kernel/audio/sb16.o
 .eh_frame      0x00000000       0xc8 object_files/kernel/audio/ac97_intel.o
 .eh_frame      0x00000000       0x78 object_files/kernel/audio/audio.o
 .eh_frame      0x00000000       0x98 object_files/kernel/audio/sys_speaker.o
 .eh_frame      0x00000000       0xec object_files/kernel/audio/ac97_via.o
 .eh_frame      0x00000000       0xe0 object_files/kernel/cdi/cdi.o
 .eh_frame      0x00000000       0xa0 object_files/kernel/cdi/cdi_net.o
 .eh_frame      0x00000000      0x154 object_files/kernel/cdi/cdi_lists.o
 .eh_frame      0x00000000       0xf0 object_files/kernel/cdi/cdi_mem.o
 .eh_frame      0x00000000       0x98 object_files/kernel/cdi/cdi_dma.o
 .eh_frame      0x00000000       0x78 object_files/kernel/cdi/cdi_storage.o
 .eh_frame      0x00000000      0x14c object_files/kernel/cdi/cdi_pci.o
 .eh_frame      0x00000000       0xb8 object_files/kernel/cdi/cdi_misc.o
 .eh_frame      0x00000000       0x78 object_files/kernel/cdi/cdi_fs.o
 .eh_frame      0x00000000      0x550 object_files/kernel/filesystem/fsmanager.o
 .eh_frame      0x00000000      0x668 object_files/kernel/filesystem/fat.o
 .eh_frame      0x00000000      0x1a0 object_files/kernel/filesystem/ramdisk.o
 .eh_frame      0x00000000       0x48 object_files/kernel/filesystem/fat12.o
 .eh_frame      0x00000000       0xec object_files/kernel/hid/keyboard.o
 .eh_frame      0x00000000      0x2a4 object_files/kernel/hid/mouse.o
 .eh_frame      0x00000000      0x104 object_files/kernel/hid/usb_hid.o
 .eh_frame      0x00000000      0x130 object_files/kernel/netprotocol/udp.o
 .eh_frame      0x00000000       0x80 object_files/kernel/netprotocol/icmp.o
 .eh_frame      0x00000000       0xd0 object_files/kernel/netprotocol/ipv4.o
 .eh_frame      0x00000000       0x8c object_files/kernel/netprotocol/ipv6.o
 .eh_frame      0x00000000       0x9c object_files/kernel/netprotocol/ethernet.o
 .eh_frame      0x00000000      0x1c0 object_files/kernel/netprotocol/arp.o
 .eh_frame      0x00000000      0x344 object_files/kernel/netprotocol/tcp.o
 .eh_frame      0x00000000      0x14c object_files/kernel/netprotocol/dhcp.o
 .eh_frame      0x00000000      0x1c4 object_files/kernel/network/e1000.o
 .eh_frame      0x00000000       0x8c object_files/kernel/network/netutils.o
 .eh_frame      0x00000000      0x1e4 object_files/kernel/network/network.o
 .eh_frame      0x00000000       0xc8 object_files/kernel/network/rtl8168.o
 .eh_frame      0x00000000       0x58 object_files/kernel/network/e1000_cdi.o
 .eh_frame      0x00000000       0xc0 object_files/kernel/network/pcnet.o
 .eh_frame      0x00000000       0xa8 object_files/kernel/network/rtl8139.o
 .eh_frame      0x00000000      0x1d0 object_files/kernel/storage/usb_msd.o
 .eh_frame      0x00000000      0x394 object_files/kernel/storage/devicemanager.o
 .eh_frame      0x00000000      0x23c object_files/kernel/storage/flpydsk.o
 .eh_frame      0x00000000      0x1d0 object_files/kernel/tasking/synchronisation.o
 .eh_frame      0x00000000      0x2b4 object_files/kernel/tasking/task.o
 .eh_frame      0x00000000      0x170 object_files/kernel/tasking/scheduler.o
 .eh_frame      0x00000000       0xac object_files/kernel/tasking/vm86.o
 .eh_frame      0x00000000      0x394 object_files/kernel/usb/usb_hc.o
 .eh_frame      0x00000000      0x2ec object_files/kernel/usb/ehci.o
 .eh_frame      0x00000000      0x270 object_files/kernel/usb/usb_hub.o
 .eh_frame      0x00000000      0x35c object_files/kernel/usb/ohci.o
 .eh_frame      0x00000000      0x380 object_files/kernel/usb/uhci.o
 .eh_frame      0x00000000      0x4cc object_files/kernel/usb/xhci.o
 .eh_frame      0x00000000      0x30c object_files/kernel/usb/ehciQHqTD.o
 .eh_frame      0x00000000      0x3c4 object_files/kernel/usb/usb.o
 .eh_frame      0x00000000       0xdc object_files/kernel/util/array.o
 .eh_frame      0x00000000      0x6d4 object_files/kernel/util/util.o
 .eh_frame      0x00000000      0x100 object_files/kernel/util/todo_list.o
 .eh_frame      0x00000000      0x230 object_files/kernel/util/list.o
 .eh_frame      0x00000000      0x160 object_files/kernel/util/ring.o
 .eh_frame      0x00000000      0x25c object_files/kernel/video/videomanager.o
 .eh_frame      0x00000000       0xe0 object_files/kernel/video/gui_window.o
 .eh_frame      0x00000000      0x22c object_files/kernel/video/usb_video.o
 .eh_frame      0x00000000       0x68 object_files/kernel/video/gui.o
 .eh_frame      0x00000000      0x47c object_files/kernel/video/console.o
 .eh_frame      0x00000000      0x384 object_files/kernel/video/video.o
 .eh_frame      0x00000000      0x2c4 object_files/kernel/video/vbe.o
 .eh_frame      0x00000000      0x4ec object_files/kernel/video/videoutils.o
 .eh_frame      0x00000000       0x88 object_files/kernel/video/gui_button.o

Memory Configuration

Name             Origin             Length             Attributes
*default*        0x00000000         0xffffffff

Linker script and memory map

LOAD object_files/kernel/kernel.o
LOAD object_files/kernel/ckernel.o
LOAD object_files/kernel/power_management.o
LOAD object_files/kernel/pe.o
LOAD object_files/kernel/executable.o
LOAD object_files/kernel/userheap.o
LOAD object_files/kernel/events.o
LOAD object_files/kernel/syscall.o
LOAD object_files/kernel/dma.o
LOAD object_files/kernel/paging.o
LOAD object_files/kernel/timer.o
LOAD object_files/kernel/cpu.o
LOAD object_files/kernel/ipc.o
LOAD object_files/kernel/serial.o
LOAD object_files/kernel/descriptor_tables.o
LOAD object_files/kernel/cmos.o
LOAD object_files/kernel/elf.o
LOAD object_files/kernel/irq.o
LOAD object_files/kernel/pci.o
LOAD object_files/kernel/log.o
LOAD object_files/kernel/time.o
LOAD object_files/kernel/apic.o
LOAD object_files/kernel/kheap.o
LOAD object_files/kernel/acpi/parser.o
LOAD object_files/kernel/acpi/acpi.o
LOAD object_files/kernel/acpi/fadt.o
LOAD object_files/kernel/acpi/madt.o
LOAD object_files/kernel/audio/wav.o
LOAD object_files/kernel/audio/sb16.o
LOAD object_files/kernel/audio/ac97_intel.o
LOAD object_files/kernel/audio/audio.o
LOAD object_files/kernel/audio/sys_speaker.o
LOAD object_files/kernel/audio/ac97_via.o
LOAD object_files/kernel/cdi/cdi.o
LOAD object_files/kernel/cdi/cdi_mempool.o
LOAD object_files/kernel/cdi/cdi_net.o
LOAD object_files/kernel/cdi/cdi_lists.o
LOAD object_files/kernel/cdi/cdi_mem.o
LOAD object_files/kernel/cdi/cdi_scsi.o
LOAD object_files/kernel/cdi/cdi_audio.o
LOAD object_files/kernel/cdi/cdi_cache.o
LOAD object_files/kernel/cdi/cdi_dma.o
LOAD object_files/kernel/cdi/cdi_usb.o
LOAD object_files/kernel/cdi/cdi_storage.o
LOAD object_files/kernel/cdi/cdi_pci.o
LOAD object_files/kernel/cdi/cdi_misc.o
LOAD object_files/kernel/cdi/cdi_fs.o
LOAD object_files/kernel/cdi/cdi_bios.o
LOAD object_files/kernel/filesystem/fsmanager.o
LOAD object_files/kernel/filesystem/fat.o
LOAD object_files/kernel/filesystem/ramdisk.o
LOAD object_files/kernel/filesystem/fat12.o
LOAD object_files/kernel/hid/keyboard.o
LOAD object_files/kernel/hid/mouse.o
LOAD object_files/kernel/hid/usb_hid.o
LOAD object_files/kernel/netprotocol/udp.o
LOAD object_files/kernel/netprotocol/icmp.o
LOAD object_files/kernel/netprotocol/ipv4.o
LOAD object_files/kernel/netprotocol/ipv6.o
LOAD object_files/kernel/netprotocol/ethernet.o
LOAD object_files/kernel/netprotocol/arp.o
LOAD object_files/kernel/netprotocol/tcp.o
LOAD object_files/kernel/netprotocol/dhcp.o
LOAD object_files/kernel/network/e1000.o
LOAD object_files/kernel/network/netutils.o
LOAD object_files/kernel/network/network.o
LOAD object_files/kernel/network/rtl8168.o
LOAD object_files/kernel/network/e1000_cdi.o
LOAD object_files/kernel/network/pcnet.o
LOAD object_files/kernel/network/rtl8139.o
LOAD object_files/kernel/storage/hdd.o
LOAD object_files/kernel/storage/ata.o
LOAD object_files/kernel/storage/usb_msd.o
LOAD object_files/kernel/storage/devicemanager.o
LOAD object_files/kernel/storage/flpydsk.o
LOAD object_files/kernel/tasking/synchronisation.o
LOAD object_files/kernel/tasking/task.o
LOAD object_files/kernel/tasking/scheduler.o
LOAD object_files/kernel/tasking/vm86.o
LOAD object_files/kernel/usb/usb_hc.o
LOAD object_files/kernel/usb/ehci.o
LOAD object_files/kernel/usb/usb_hub.o
LOAD object_files/kernel/usb/ohci.o
LOAD object_files/kernel/usb/uhci.o
LOAD object_files/kernel/usb/xhci.o
LOAD object_files/kernel/usb/ehciQHqTD.o
LOAD object_files/kernel/usb/usb.o
LOAD object_files/kernel/util/array.o
LOAD object_files/kernel/util/util.o
LOAD object_files/kernel/util/todo_list.o
LOAD object_files/kernel/util/list.o
LOAD object_files/kernel/util/ring.o
LOAD object_files/kernel/video/videomanager.o
LOAD object_files/kernel/video/gui_window.o
LOAD object_files/kernel/video/usb_video.o
LOAD object_files/kernel/video/gui.o
LOAD object_files/kernel/video/console.o
LOAD object_files/kernel/video/video.o
LOAD object_files/kernel/video/vbe.o
LOAD object_files/kernel/video/videoutils.o
LOAD object_files/kernel/video/gui_button.o
LOAD object_files/kernel/kernel.o
LOAD object_files/kernel/data.o
LOAD object_files/kernel/interrupts.o
LOAD object_files/kernel/flush.o
                0x00100000                . = 0x100000
                0x00100000                _kernel_beg = .

.text           0x00100000    0x33155
                0x00100000                _ro_start = .
 *(.text*)
 .text          0x00100000       0x28 object_files/kernel/kernel.o
 .text          0x00100028        0x0 object_files/kernel/ckernel.o
 *fill*         0x00100028        0x8 
 .text.logText  0x00100030       0x4a object_files/kernel/ckernel.o
 *fill*         0x0010007a        0x6 
 .text.logExec  0x00100080       0x6c object_files/kernel/ckernel.o
 *fill*         0x001000ec        0x4 
 .text.startup.main
                0x001000f0      0x8ba object_files/kernel/ckernel.o
                0x001000f0                main
 .text          0x001009aa        0x0 object_files/kernel/power_management.o
 *fill*         0x001009aa        0x6 
 .text.apm_action
                0x001009b0       0x5e object_files/kernel/power_management.o
 *fill*         0x00100a0e        0x2 
 .text.nopm_action
                0x00100a10       0x7b object_files/kernel/power_management.o
 *fill*         0x00100a8b        0x5 
 .text.powmgmt_install
                0x00100a90      0x13f object_files/kernel/power_management.o
                0x00100a90                powmgmt_install
 *fill*         0x00100bcf        0x1 
 .text.powmgmt_log
                0x00100bd0       0x55 object_files/kernel/power_management.o
                0x00100bd0                powmgmt_log
 *fill*         0x00100c25        0xb 
 .text.powmgmt_action
                0x00100c30       0x64 object_files/kernel/power_management.o
                0x00100c30                powmgmt_action
 .text          0x00100c94        0x0 object_files/kernel/pe.o
 *fill*         0x00100c94        0xc 
 .text.pe_checkFilename
                0x00100ca0       0x3b object_files/kernel/pe.o
                0x00100ca0                pe_checkFilename
 *fill*         0x00100cdb        0x5 
 .text.pe_checkFileformat
                0x00100ce0       0x74 object_files/kernel/pe.o
                0x00100ce0                pe_checkFileformat
 *fill*         0x00100d54        0xc 
 .text.pe_prepareExecution
                0x00100d60      0x1b3 object_files/kernel/pe.o
                0x00100d60                pe_prepareExecution
 .text          0x00100f13        0x0 object_files/kernel/executable.o
 *fill*         0x00100f13        0xd 
 .text.executeFile
                0x00100f20      0x4ea object_files/kernel/executable.o
                0x00100f20                executeFile
 .text          0x0010140a        0x0 object_files/kernel/userheap.o
 *fill*         0x0010140a        0x6 
 .text.allocateNewReg
                0x00101410       0xea object_files/kernel/userheap.o
 *fill*         0x001014fa        0x6 
 .text.tryAllocFromFreeBlock
                0x00101500       0xf3 object_files/kernel/userheap.o
 *fill*         0x001015f3        0xd 
 .text.userHeap_free.part.0
                0x00101600      0x1b5 object_files/kernel/userheap.o
 *fill*         0x001017b5        0xb 
 .text.userHeap_destroy
                0x001017c0       0xd1 object_files/kernel/userheap.o
                0x001017c0                userHeap_destroy
 *fill*         0x00101891        0xf 
 .text.userHeap_create
                0x001018a0       0xab object_files/kernel/userheap.o
                0x001018a0                userHeap_create
 *fill*         0x0010194b        0x5 
 .text.userHeap_alloc
                0x00101950      0x1ac object_files/kernel/userheap.o
                0x00101950                userHeap_alloc
 *fill*         0x00101afc        0x4 
 .text.userHeap_free
                0x00101b00       0x22 object_files/kernel/userheap.o
                0x00101b00                userHeap_free
 *fill*         0x00101b22        0xe 
 .text.userHeapSc_create
                0x00101b30       0x3b object_files/kernel/userheap.o
                0x00101b30                userHeapSc_create
 *fill*         0x00101b6b        0x5 
 .text.userHeapSc_destroy
                0x00101b70       0x50 object_files/kernel/userheap.o
                0x00101b70                userHeapSc_destroy
 .text.userHeapSc_alloc
                0x00101bc0       0x24 object_files/kernel/userheap.o
                0x00101bc0                userHeapSc_alloc
 *fill*         0x00101be4        0xc 
 .text.userHeapSc_free
                0x00101bf0       0x26 object_files/kernel/userheap.o
                0x00101bf0                userHeapSc_free
 *fill*         0x00101c16        0xa 
 .text.userHeap_cleanUp
                0x00101c20       0x45 object_files/kernel/userheap.o
                0x00101c20                userHeap_cleanUp
 .text          0x00101c65        0x0 object_files/kernel/events.o
 *fill*         0x00101c65        0xb 
 .text.event_createQueue
                0x00101c70       0x38 object_files/kernel/events.o
                0x00101c70                event_createQueue
 *fill*         0x00101ca8        0x8 
 .text.event_deleteQueue
                0x00101cb0       0x2a object_files/kernel/events.o
                0x00101cb0                event_deleteQueue
 *fill*         0x00101cda        0x6 
 .text.event_issue
                0x00101ce0       0xe3 object_files/kernel/events.o
                0x00101ce0                event_issue
 *fill*         0x00101dc3        0xd 
 .text.event_issueToDisplayedTasks
                0x00101dd0       0x41 object_files/kernel/events.o
                0x00101dd0                event_issueToDisplayedTasks
 *fill*         0x00101e11        0xf 
 .text.event_poll
                0x00101e20      0x144 object_files/kernel/events.o
                0x00101e20                event_poll
 *fill*         0x00101f64        0xc 
 .text.event_peek
                0x00101f70       0x44 object_files/kernel/events.o
                0x00101f70                event_peek
 *fill*         0x00101fb4        0xc 
 .text.event_unlockTask
                0x00101fc0       0x16 object_files/kernel/events.o
                0x00101fc0                event_unlockTask
 *fill*         0x00101fd6        0xa 
 .text.waitForEvent
                0x00101fe0       0x1a object_files/kernel/events.o
                0x00101fe0                waitForEvent
 *fill*         0x00101ffa        0x6 
 .text.event_enable
                0x00102000       0x5a object_files/kernel/events.o
                0x00102000                event_enable
 .text          0x0010205a       0x17 object_files/kernel/syscall.o
 *fill*         0x00102071        0xf 
 .text.nop      0x00102080        0x6 object_files/kernel/syscall.o
 *fill*         0x00102086        0xa 
 .text.syscall_handler
                0x00102090       0x5d object_files/kernel/syscall.o
 *fill*         0x001020ed        0x3 
 .text.syscall_install
                0x001020f0       0x70 object_files/kernel/syscall.o
                0x001020f0                syscall_install
 .text          0x00102160        0x0 object_files/kernel/dma.o
 .text.dma_read
                0x00102160       0x6f object_files/kernel/dma.o
                0x00102160                dma_read
 *fill*         0x001021cf        0x1 
 .text.dma_write
                0x001021d0       0x60 object_files/kernel/dma.o
                0x001021d0                dma_write
 .text          0x00102230        0x0 object_files/kernel/paging.o
 .text.physSetBits
                0x00102230       0x65 object_files/kernel/paging.o
 *fill*         0x00102295        0xb 
 .text.lookForVirtAddr
                0x001022a0       0x9a object_files/kernel/paging.o
 *fill*         0x0010233a        0x6 
 .text.setFixedMTRR
                0x00102340      0x15c object_files/kernel/paging.o
 *fill*         0x0010249c        0x4 
 .text.paging_install
                0x001024a0      0x565 object_files/kernel/paging.o
                0x001024a0                paging_install
 *fill*         0x00102a05        0xb 
 .text.paging_switch
                0x00102a10       0x1e object_files/kernel/paging.o
                0x00102a10                paging_switch
 *fill*         0x00102a2e        0x2 
 .text.paging_allocPhysMem
                0x00102a30      0x145 object_files/kernel/paging.o
                0x00102a30                paging_allocPhysMem
 *fill*         0x00102b75        0xb 
 .text.paging_allocPhysAddr
                0x00102b80       0xda object_files/kernel/paging.o
                0x00102b80                paging_allocPhysAddr
 *fill*         0x00102c5a        0x6 
 .text.paging_freePhysMem
                0x00102c60       0x78 object_files/kernel/paging.o
                0x00102c60                paging_freePhysMem
 *fill*         0x00102cd8        0x8 
 .text.paging_setPhysMemCachingBehaviour
                0x00102ce0      0x22a object_files/kernel/paging.o
                0x00102ce0                paging_setPhysMemCachingBehaviour
 *fill*         0x00102f0a        0x6 
 .text.paging_allocVirtMem
                0x00102f10        0x7 object_files/kernel/paging.o
                0x00102f10                paging_allocVirtMem
 *fill*         0x00102f17        0x9 
 .text.paging_freeVirtMem
                0x00102f20      0x14f object_files/kernel/paging.o
                0x00102f20                paging_freeVirtMem
 *fill*         0x0010306f        0x1 
 .text.paging_allocVirtAddr
                0x00103070      0x1e4 object_files/kernel/paging.o
                0x00103070                paging_allocVirtAddr
 *fill*         0x00103254        0xc 
 .text.paging_mapVirtToPhysAddr
                0x00103260      0x1cf object_files/kernel/paging.o
                0x00103260                paging_mapVirtToPhysAddr
 *fill*         0x0010342f        0x1 
 .text.paging_alloc
                0x00103430      0x12a object_files/kernel/paging.o
                0x00103430                paging_alloc
 *fill*         0x0010355a        0x6 
 .text.paging_allocNew
                0x00103560       0xdf object_files/kernel/paging.o
                0x00103560                paging_allocNew
 *fill*         0x0010363f        0x1 
 .text.paging_free
                0x00103640      0x14c object_files/kernel/paging.o
                0x00103640                paging_free
 *fill*         0x0010378c        0x4 
 .text.paging_setFlags
                0x00103790      0x1a5 object_files/kernel/paging.o
                0x00103790                paging_setFlags
 *fill*         0x00103935        0xb 
 .text.paging_createPageDirectory
                0x00103940       0x8d object_files/kernel/paging.o
                0x00103940                paging_createPageDirectory
 *fill*         0x001039cd        0x3 
 .text.paging_destroyPageDirectory
                0x001039d0      0x105 object_files/kernel/paging.o
                0x001039d0                paging_destroyPageDirectory
 *fill*         0x00103ad5        0xb 
 .text.paging_allocMMIO
                0x00103ae0       0xa0 object_files/kernel/paging.o
                0x00103ae0                paging_allocMMIO
 .text.paging_getPhysAddr
                0x00103b80       0x39 object_files/kernel/paging.o
                0x00103b80                paging_getPhysAddr
 *fill*         0x00103bb9        0x7 
 .text.paging_getVirtAddr
                0x00103bc0       0x70 object_files/kernel/paging.o
                0x00103bc0                paging_getVirtAddr
 .text.paging_analyzeBitTable
                0x00103c30      0x17f object_files/kernel/paging.o
                0x00103c30                paging_analyzeBitTable
 .text          0x00103daf        0x0 object_files/kernel/timer.o
 *fill*         0x00103daf        0x1 
 .text.timer_handler
                0x00103db0       0x21 object_files/kernel/timer.o
                0x00103db0                timer_handler
 *fill*         0x00103dd1        0xf 
 .text.timer_install
                0x00103de0       0x51 object_files/kernel/timer.o
                0x00103de0                timer_install
 *fill*         0x00103e31        0xf 
 .text.timer_getSeconds
                0x00103e40       0x22 object_files/kernel/timer.o
                0x00103e40                timer_getSeconds
 *fill*         0x00103e62        0xe 
 .text.timer_getMilliseconds
                0x00103e70       0x21 object_files/kernel/timer.o
                0x00103e70                timer_getMilliseconds
 *fill*         0x00103e91        0xf 
 .text.timer_getTicks
                0x00103ea0       0x10 object_files/kernel/timer.o
                0x00103ea0                timer_getTicks
 .text.timer_millisecondsToTicks
                0x00103eb0       0x1e object_files/kernel/timer.o
                0x00103eb0                timer_millisecondsToTicks
 *fill*         0x00103ece        0x2 
 .text.sleepSeconds
                0x00103ed0       0x1c object_files/kernel/timer.o
                0x00103ed0                sleepSeconds
 *fill*         0x00103eec        0x4 
 .text.sleepMilliSeconds
                0x00103ef0       0x17 object_files/kernel/timer.o
                0x00103ef0                sleepMilliSeconds
 *fill*         0x00103f07        0x9 
 .text.sleepMilliSecondsOld
                0x00103f10       0x6c object_files/kernel/timer.o
                0x00103f10                sleepMilliSecondsOld
 *fill*         0x00103f7c        0x4 
 .text.timer_setFrequency
                0x00103f80       0x36 object_files/kernel/timer.o
                0x00103f80                timer_setFrequency
 *fill*         0x00103fb6        0xa 
 .text.timer_getFrequency
                0x00103fc0        0xc object_files/kernel/timer.o
                0x00103fc0                timer_getFrequency
 *fill*         0x00103fcc        0x4 
 .text.delay    0x00103fd0       0x59 object_files/kernel/timer.o
                0x00103fd0                delay
 .text          0x00104029        0x0 object_files/kernel/cpu.o
 *fill*         0x00104029        0x7 
 .text.printSupport
                0x00104030       0x52 object_files/kernel/cpu.o
 *fill*         0x00104082        0xe 
 .text.cpu_idGetRegister.part.0
                0x00104090       0x67 object_files/kernel/cpu.o
 *fill*         0x001040f7        0x9 
 .text.cpu_supports.part.1
                0x00104100       0x2c object_files/kernel/cpu.o
 *fill*         0x0010412c        0x4 
 .text.cpu_install
                0x00104130       0x8c object_files/kernel/cpu.o
                0x00104130                cpu_install
 *fill*         0x001041bc        0x4 
 .text.cpu_analyze
                0x001041c0      0x26f object_files/kernel/cpu.o
                0x001041c0                cpu_analyze
 *fill*         0x0010442f        0x1 
 .text.cpu_calculateFrequency
                0x00104430       0x52 object_files/kernel/cpu.o
                0x00104430                cpu_calculateFrequency
 *fill*         0x00104482        0xe 
 .text.cpu_supports
                0x00104490       0x22 object_files/kernel/cpu.o
                0x00104490                cpu_supports
 *fill*         0x001044b2        0xe 
 .text.cpu_idGetRegister
                0x001044c0       0x24 object_files/kernel/cpu.o
                0x001044c0                cpu_idGetRegister
 *fill*         0x001044e4        0xc 
 .text.cpu_MSRread
                0x001044f0        0xa object_files/kernel/cpu.o
                0x001044f0                cpu_MSRread
 *fill*         0x001044fa        0x6 
 .text.cpu_MSRwrite
                0x00104500       0x10 object_files/kernel/cpu.o
                0x00104500                cpu_MSRwrite
 .text.fpu_install
                0x00104510       0x52 object_files/kernel/cpu.o
                0x00104510                fpu_install
 *fill*         0x00104562        0xe 
 .text.fpu_test
                0x00104570      0x132 object_files/kernel/cpu.o
                0x00104570                fpu_test
 .text          0x001046a2        0x0 object_files/kernel/ipc.o
 *fill*         0x001046a2        0xe 
 .text.accessAllowed
                0x001046b0       0x82 object_files/kernel/ipc.o
 *fill*         0x00104732        0xe 
 .text.ipc_printNode
                0x00104740      0x2d5 object_files/kernel/ipc.o
 *fill*         0x00104a15        0xb 
 .text.getNode.isra.0
                0x00104a20       0xbc object_files/kernel/ipc.o
 *fill*         0x00104adc        0x4 
 .text.createNode.part.1
                0x00104ae0       0x86 object_files/kernel/ipc.o
 *fill*         0x00104b66        0xa 
 .text.ipc_getNode
                0x00104b70       0x78 object_files/kernel/ipc.o
                0x00104b70                ipc_getNode
 *fill*         0x00104be8        0x8 
 .text.ipc_createNode
                0x00104bf0      0x15d object_files/kernel/ipc.o
                0x00104bf0                ipc_createNode
 *fill*         0x00104d4d        0x3 
 .text.prepareNodeToWrite
                0x00104d50       0x43 object_files/kernel/ipc.o
 *fill*         0x00104d93        0xd 
 .text.ipc_deleteNode
                0x00104da0       0xe1 object_files/kernel/ipc.o
                0x00104da0                ipc_deleteNode
 *fill*         0x00104e81        0xf 
 .text.ipc_print
                0x00104e90       0x4d object_files/kernel/ipc.o
                0x00104e90                ipc_print
 *fill*         0x00104edd        0x3 
 .text.ipc_fopen
                0x00104ee0       0xa8 object_files/kernel/ipc.o
                0x00104ee0                ipc_fopen
 *fill*         0x00104f88        0x8 
 .text.ipc_getFolder
                0x00104f90      0x10d object_files/kernel/ipc.o
                0x00104f90                ipc_getFolder
 *fill*         0x0010509d        0x3 
 .text.ipc_getString
                0x001050a0       0x9e object_files/kernel/ipc.o
                0x001050a0                ipc_getString
 *fill*         0x0010513e        0x2 
 .text.ipc_getConstString
                0x00105140       0x6a object_files/kernel/ipc.o
                0x00105140                ipc_getConstString
 *fill*         0x001051aa        0x6 
 .text.ipc_getInt
                0x001051b0       0x5a object_files/kernel/ipc.o
                0x001051b0                ipc_getInt
 *fill*         0x0010520a        0x6 
 .text.ipc_getDouble
                0x00105210       0x6a object_files/kernel/ipc.o
                0x00105210                ipc_getDouble
 *fill*         0x0010527a        0x6 
 .text.ipc_setString
                0x00105280       0x5b object_files/kernel/ipc.o
                0x00105280                ipc_setString
 *fill*         0x001052db        0x5 
 .text.ipc_setInt
                0x001052e0       0x4c object_files/kernel/ipc.o
                0x001052e0                ipc_setInt
 *fill*         0x0010532c        0x4 
 .text.ipc_setDouble
                0x00105330       0x39 object_files/kernel/ipc.o
                0x00105330                ipc_setDouble
 *fill*         0x00105369        0x7 
 .text.ipc_deleteKey
                0x00105370       0x5a object_files/kernel/ipc.o
                0x00105370                ipc_deleteKey
 *fill*         0x001053ca        0x6 
 .text.ipc_setAccess
                0x001053d0      0x10a object_files/kernel/ipc.o
                0x001053d0                ipc_setAccess
 *fill*         0x001054da        0x6 
 .text.ipc_setTaskWorkingNode
                0x001054e0       0x5e object_files/kernel/ipc.o
                0x001054e0                ipc_setTaskWorkingNode
 .text          0x0010553e        0x0 object_files/kernel/serial.o
 *fill*         0x0010553e        0x2 
 .text.serial_init
                0x00105540      0x11d object_files/kernel/serial.o
                0x00105540                serial_init
 *fill*         0x0010565d        0x3 
 .text.serial_received
                0x00105660       0x5b object_files/kernel/serial.o
                0x00105660                serial_received
 *fill*         0x001056bb        0x5 
 .text.serial_read
                0x001056c0       0x70 object_files/kernel/serial.o
                0x001056c0                serial_read
 .text.serial_isTransmitEmpty
                0x00105730       0x5e object_files/kernel/serial.o
                0x00105730                serial_isTransmitEmpty
 *fill*         0x0010578e        0x2 
 .text.serial_write
                0x00105790       0x68 object_files/kernel/serial.o
                0x00105790                serial_write
 *fill*         0x001057f8        0x8 
 .text.serial_vprintf
                0x00105800       0xd5 object_files/kernel/serial.o
                0x00105800                serial_vprintf
 *fill*         0x001058d5        0xb 
 .text.serial_printf
                0x001058e0       0x1c object_files/kernel/serial.o
                0x001058e0                serial_printf
 .text          0x001058fc        0x0 object_files/kernel/descriptor_tables.o
 *fill*         0x001058fc        0x4 
 .text.gdt_setGate
                0x00105900       0x56 object_files/kernel/descriptor_tables.o
                0x00105900                gdt_setGate
 *fill*         0x00105956        0xa 
 .text.gdt_install
                0x00105960      0x113 object_files/kernel/descriptor_tables.o
                0x00105960                gdt_install
 *fill*         0x00105a73        0xd 
 .text.tss_write
                0x00105a80       0x92 object_files/kernel/descriptor_tables.o
                0x00105a80                tss_write
 *fill*         0x00105b12        0xe 
 .text.tss_switch
                0x00105b20       0x1d object_files/kernel/descriptor_tables.o
                0x00105b20                tss_switch
 .text          0x00105b3d        0x0 object_files/kernel/cmos.o
 *fill*         0x00105b3d        0x3 
 .text.cmos_read
                0x00105b40       0x37 object_files/kernel/cmos.o
                0x00105b40                cmos_read
 *fill*         0x00105b77        0x9 
 .text.cmos_write
                0x00105b80       0x3d object_files/kernel/cmos.o
                0x00105b80                cmos_write
 .text          0x00105bbd        0x0 object_files/kernel/elf.o
 *fill*         0x00105bbd        0x3 
 .text.elf_checkFilename
                0x00105bc0       0x3b object_files/kernel/elf.o
                0x00105bc0                elf_checkFilename
 *fill*         0x00105bfb        0x5 
 .text.elf_checkFileformat
                0x00105c00       0x6b object_files/kernel/elf.o
                0x00105c00                elf_checkFileformat
 *fill*         0x00105c6b        0x5 
 .text.elf_prepareExecution
                0x00105c70      0x12a object_files/kernel/elf.o
                0x00105c70                elf_prepareExecution
 .text          0x00105d9a        0x0 object_files/kernel/irq.o
 *fill*         0x00105d9a        0x6 
 .text.installHandler
                0x00105da0       0xc9 object_files/kernel/irq.o
 *fill*         0x00105e69        0x7 
 .text.quitTask
                0x00105e70       0x71 object_files/kernel/irq.o
 *fill*         0x00105ee1        0xf 
 .text.PF       0x00105ef0      0x103 object_files/kernel/irq.o
 *fill*         0x00105ff3        0xd 
 .text.invalidOpcode
                0x00106000       0xa7 object_files/kernel/irq.o
 *fill*         0x001060a7        0x9 
 .text.defaultError
                0x001060b0       0x93 object_files/kernel/irq.o
 *fill*         0x00106143        0xd 
 .text.NM       0x00106150       0x5c object_files/kernel/irq.o
 *fill*         0x001061ac        0x4 
 .text.NM_fxsr  0x001061b0       0x5f object_files/kernel/irq.o
 *fill*         0x0010620f        0x1 
 .text.GPF      0x00106210       0x5d object_files/kernel/irq.o
 *fill*         0x0010626d        0x3 
 .text.irq_installHandler
                0x00106270       0x22 object_files/kernel/irq.o
                0x00106270                irq_installHandler
 *fill*         0x00106292        0xe 
 .text.irq_installCDIHandler
                0x001062a0       0x24 object_files/kernel/irq.o
                0x001062a0                irq_installCDIHandler
 *fill*         0x001062c4        0xc 
 .text.irq_installPCIHandler
                0x001062d0       0x24 object_files/kernel/irq.o
                0x001062d0                irq_installPCIHandler
 *fill*         0x001062f4        0xc 
 .text.irq_uninstallHandler
                0x00106300      0x102 object_files/kernel/irq.o
                0x00106300                irq_uninstallHandler
 *fill*         0x00106402        0xe 
 .text.irq_resetCounter
                0x00106410       0x1a object_files/kernel/irq.o
                0x00106410                irq_resetCounter
 *fill*         0x0010642a        0x6 
 .text.waitForIRQ
                0x00106430       0x41 object_files/kernel/irq.o
                0x00106430                waitForIRQ
 *fill*         0x00106471        0xf 
 .text.irq_unlockTask
                0x00106480       0x17 object_files/kernel/irq.o
                0x00106480                irq_unlockTask
 *fill*         0x00106497        0x9 
 .text.isr_install
                0x001064a0       0x7c object_files/kernel/irq.o
                0x001064a0                isr_install
 *fill*         0x0010651c        0x4 
 .text.irq_handler
                0x00106520      0x225 object_files/kernel/irq.o
                0x00106520                irq_handler
 .text          0x00106745        0x0 object_files/kernel/pci.o
 *fill*         0x00106745        0xb 
 .text.config_read
                0x00106750       0x9d object_files/kernel/pci.o
 *fill*         0x001067ed        0x3 
 .text.config_write_word
                0x001067f0       0x7b object_files/kernel/pci.o
 *fill*         0x0010686b        0x5 
 .text.config_write_dword
                0x00106870       0x70 object_files/kernel/pci.o
 .text.pci_analyzeHostSystemError
                0x001068e0      0x1d5 object_files/kernel/pci.o
                0x001068e0                pci_analyzeHostSystemError
 *fill*         0x00106ab5        0xb 
 .text.pci_configRead
                0x00106ac0       0x2c object_files/kernel/pci.o
                0x00106ac0                pci_configRead
 *fill*         0x00106aec        0x4 
 .text.pci_configWrite_byte
                0x00106af0       0x79 object_files/kernel/pci.o
                0x00106af0                pci_configWrite_byte
 *fill*         0x00106b69        0x7 
 .text.pci_configWrite_word
                0x00106b70       0x2c object_files/kernel/pci.o
                0x00106b70                pci_configWrite_word
 *fill*         0x00106b9c        0x4 
 .text.pci_configWrite_dword
                0x00106ba0       0x2b object_files/kernel/pci.o
                0x00106ba0                pci_configWrite_dword
 *fill*         0x00106bcb        0x5 
 .text.pci_deviceSentInterrupt
                0x00106bd0       0x26 object_files/kernel/pci.o
                0x00106bd0                pci_deviceSentInterrupt
 *fill*         0x00106bf6        0xa 
 .text.pci_getExtendedCapability
                0x00106c00       0x44 object_files/kernel/pci.o
                0x00106c00                pci_getExtendedCapability
 *fill*         0x00106c44        0xc 
 .text.pci_trySetMSIVector
                0x00106c50      0x183 object_files/kernel/pci.o
                0x00106c50                pci_trySetMSIVector
 *fill*         0x00106dd3        0xd 
 .text.pci_switchToMSI
                0x00106de0       0xb5 object_files/kernel/pci.o
                0x00106de0                pci_switchToMSI
 *fill*         0x00106e95        0xb 
 .text.pci_aquireMemoryForMMIO
                0x00106ea0       0x47 object_files/kernel/pci.o
                0x00106ea0                pci_aquireMemoryForMMIO
 *fill*         0x00106ee7        0x9 
 .text.pci_scanBus
                0x00106ef0      0x7fe object_files/kernel/pci.o
                0x00106ef0                pci_scanBus
 *fill*         0x001076ee        0x2 
 .text.pci_scan
                0x001076f0       0x24 object_files/kernel/pci.o
                0x001076f0                pci_scan
 *fill*         0x00107714        0xc 
 .text.pci_installDevices
                0x00107720       0x8e object_files/kernel/pci.o
                0x00107720                pci_installDevices
 .text          0x001077ae        0x0 object_files/kernel/log.o
 *fill*         0x001077ae        0x2 
 .text.log_flushSecondary
                0x001077b0      0x18d object_files/kernel/log.o
                0x001077b0                log_flushSecondary
 *fill*         0x0010793d        0x3 
 .text.log_showScreenStatus
                0x00107940       0x64 object_files/kernel/log.o
                0x00107940                log_showScreenStatus
 *fill*         0x001079a4        0xc 
 .text.log_incrementScreenLevel
                0x001079b0       0x3f object_files/kernel/log.o
                0x001079b0                log_incrementScreenLevel
 *fill*         0x001079ef        0x1 
 .text.log_decrementScreenLevel
                0x001079f0       0x40 object_files/kernel/log.o
                0x001079f0                log_decrementScreenLevel
 .text.log_setScreenFocus
                0x00107a30       0x26 object_files/kernel/log.o
                0x00107a30                log_setScreenFocus
 *fill*         0x00107a56        0xa 
 .text.log_showSecondaryStatus
                0x00107a60       0x89 object_files/kernel/log.o
                0x00107a60                log_showSecondaryStatus
 *fill*         0x00107ae9        0x7 
 .text.log_incrementSecondaryLevel
                0x00107af0       0x3f object_files/kernel/log.o
                0x00107af0                log_incrementSecondaryLevel
 *fill*         0x00107b2f        0x1 
 .text.log_decrementSecondaryLevel
                0x00107b30       0x40 object_files/kernel/log.o
                0x00107b30                log_decrementSecondaryLevel
 .text.log_toggleSecondaryMode
                0x00107b70       0x37 object_files/kernel/log.o
                0x00107b70                log_toggleSecondaryMode
 *fill*         0x00107ba7        0x9 
 .text.log_setSecondaryFocus
                0x00107bb0       0x26 object_files/kernel/log.o
                0x00107bb0                log_setSecondaryFocus
 *fill*         0x00107bd6        0xa 
 .text.log_vprintf
                0x00107be0      0x27c object_files/kernel/log.o
                0x00107be0                log_vprintf
 *fill*         0x00107e5c        0x4 
 .text.log_printf
                0x00107e60       0x1d object_files/kernel/log.o
                0x00107e60                log_printf
 *fill*         0x00107e7d        0x3 
 .text.log_printfc
                0x00107e80       0x43 object_files/kernel/log.o
                0x00107e80                log_printfc
 .text          0x00107ec3        0x0 object_files/kernel/time.o
 *fill*         0x00107ec3        0xd 
 .text.writeInt.constprop.0
                0x00107ed0       0x43 object_files/kernel/time.o
 *fill*         0x00107f13        0xd 
 .text.cmosTime
                0x00107f20       0xc2 object_files/kernel/time.o
                0x00107f20                cmosTime
 *fill*         0x00107fe2        0xe 
 .text.getCurrentDateAndTime
                0x00107ff0      0x1b5 object_files/kernel/time.o
                0x00107ff0                getCurrentDateAndTime
 .text          0x001081a5        0x0 object_files/kernel/apic.o
 *fill*         0x001081a5        0xb 
 .text.lapic_available
                0x001081b0       0x2f object_files/kernel/apic.o
                0x001081b0                lapic_available
 *fill*         0x001081df        0x1 
 .text.ioapic_available
                0x001081e0       0x2e object_files/kernel/apic.o
                0x001081e0                ioapic_available
 *fill*         0x0010820e        0x2 
 .text.ioapic_installed
                0x00108210        0xf object_files/kernel/apic.o
                0x00108210                ioapic_installed
 *fill*         0x0010821f        0x1 
 .text.lapic_getID
                0x00108220        0xd object_files/kernel/apic.o
                0x00108220                lapic_getID
 *fill*         0x0010822d        0x3 
 .text.lapic_install
                0x00108230      0x168 object_files/kernel/apic.o
                0x00108230                lapic_install
 *fill*         0x00108398        0x8 
 .text.ioapic_install
                0x001083a0      0x275 object_files/kernel/apic.o
                0x001083a0                ioapic_install
 *fill*         0x00108615        0xb 
 .text.ioapic_getID
                0x00108620       0x16 object_files/kernel/apic.o
                0x00108620                ioapic_getID
 *fill*         0x00108636        0xa 
 .text.lapic_eoi
                0x00108640       0x1d object_files/kernel/apic.o
                0x00108640                lapic_eoi
 .text          0x0010865d        0x0 object_files/kernel/kheap.o
 *fill*         0x0010865d        0x3 
 .text.heap_install
                0x00108660       0x79 object_files/kernel/kheap.o
                0x00108660                heap_install
 *fill*         0x001086d9        0x7 
 .text.heap_getCurrentEnd
                0x001086e0        0xf object_files/kernel/kheap.o
                0x001086e0                heap_getCurrentEnd
 *fill*         0x001086ef        0x1 
 .text.malloc   0x001086f0      0x547 object_files/kernel/kheap.o
                0x001086f0                malloc
 *fill*         0x00108c37        0x9 
 .text.free     0x00108c40      0x171 object_files/kernel/kheap.o
                0x00108c40                free
 *fill*         0x00108db1        0xf 
 .text.heap_logRegions
                0x00108dc0       0xea object_files/kernel/kheap.o
                0x00108dc0                heap_logRegions
 .text          0x00108eaa        0x0 object_files/kernel/acpi/parser.o
 .text          0x00108eaa        0x0 object_files/kernel/acpi/acpi.o
 *fill*         0x00108eaa        0x6 
 .text.findRootSystemDescriptorPointer
                0x00108eb0       0x9c object_files/kernel/acpi/acpi.o
 *fill*         0x00108f4c        0x4 
 .text.acpi_tryAlloc
                0x00108f50       0x2e object_files/kernel/acpi/acpi.o
 *fill*         0x00108f7e        0x2 
 .text.acpi_tryDealloc
                0x00108f80       0x3c object_files/kernel/acpi/acpi.o
 *fill*         0x00108fbc        0x4 
 .text.acpi_parseRSDT
                0x00108fc0      0x1a7 object_files/kernel/acpi/acpi.o
                0x00108fc0                acpi_parseRSDT
 *fill*         0x00109167        0x9 
 .text.acpi_available
                0x00109170       0x54 object_files/kernel/acpi/acpi.o
                0x00109170                acpi_available
 *fill*         0x001091c4        0xc 
 .text.acpi_install
                0x001091d0      0x110 object_files/kernel/acpi/acpi.o
                0x001091d0                acpi_install
 .text.acpi_registerParser
                0x001092e0       0x9b object_files/kernel/acpi/acpi.o
                0x001092e0                acpi_registerParser
 *fill*         0x0010937b        0x5 
 .text.acpi_unregisterParser
                0x00109380       0x89 object_files/kernel/acpi/acpi.o
                0x00109380                acpi_unregisterParser
 *fill*         0x00109409        0x7 
 .text.acpi_reload
                0x00109410      0x120 object_files/kernel/acpi/acpi.o
                0x00109410                acpi_reload
 .text.acpi_reparse
                0x00109530       0xc0 object_files/kernel/acpi/acpi.o
                0x00109530                acpi_reparse
 .text.acpi_parseSpecific
                0x001095f0       0xdd object_files/kernel/acpi/acpi.o
                0x001095f0                acpi_parseSpecific
 .text          0x001096cd        0x0 object_files/kernel/acpi/fadt.o
 *fill*         0x001096cd        0x3 
 .text.acpi_parser_fadt
                0x001096d0       0xa6 object_files/kernel/acpi/fadt.o
                0x001096d0                acpi_parser_fadt
 .text          0x00109776        0x0 object_files/kernel/acpi/madt.o
 *fill*         0x00109776        0xa 
 .text.acpi_parser_madt
                0x00109780      0x471 object_files/kernel/acpi/madt.o
                0x00109780                acpi_parser_madt
 .text          0x00109bf1        0x0 object_files/kernel/audio/wav.o
 *fill*         0x00109bf1        0xf 
 .text.wav_parseWAV
                0x00109c00      0x2c8 object_files/kernel/audio/wav.o
                0x00109c00                wav_parseWAV
 *fill*         0x00109ec8        0x8 
 .text.wav_playStartWav
                0x00109ed0       0x83 object_files/kernel/audio/wav.o
                0x00109ed0                wav_playStartWav
 .text          0x00109f53        0x0 object_files/kernel/audio/sb16.o
 *fill*         0x00109f53        0xd 
 .text.install_SB16
                0x00109f60        0x5 object_files/kernel/audio/sb16.o
                0x00109f60                install_SB16
 .text          0x00109f65        0x0 object_files/kernel/audio/ac97_intel.o
 *fill*         0x00109f65        0xb 
 .text.AC97_handler
                0x00109f70       0x51 object_files/kernel/audio/ac97_intel.o
 *fill*         0x00109fc1        0xf 
 .text.ac97Intel_install
                0x00109fd0      0x20f object_files/kernel/audio/ac97_intel.o
                0x00109fd0                ac97Intel_install
 *fill*         0x0010a1df        0x1 
 .text.ac97Intel_start
                0x0010a1e0       0xb7 object_files/kernel/audio/ac97_intel.o
                0x0010a1e0                ac97Intel_start
 *fill*         0x0010a297        0x9 
 .text.ac97Intel_stop
                0x0010a2a0       0x7e object_files/kernel/audio/ac97_intel.o
                0x0010a2a0                ac97Intel_stop
 .text          0x0010a31e        0x0 object_files/kernel/audio/audio.o
 *fill*         0x0010a31e        0x2 
 .text.audio_installDevice
                0x0010a320       0x69 object_files/kernel/audio/audio.o
                0x0010a320                audio_installDevice
 *fill*         0x0010a389        0x7 
 .text.audio_test
                0x0010a390       0x86 object_files/kernel/audio/audio.o
                0x0010a390                audio_test
 .text          0x0010a416        0x0 object_files/kernel/audio/sys_speaker.o
 *fill*         0x0010a416        0xa 
 .text.sound    0x0010a420       0x34 object_files/kernel/audio/sys_speaker.o
                0x0010a420                sound
 *fill*         0x0010a454        0xc 
 .text.noSound  0x0010a460       0x15 object_files/kernel/audio/sys_speaker.o
                0x0010a460                noSound
 *fill*         0x0010a475        0xb 
 .text.beep     0x0010a480       0x56 object_files/kernel/audio/sys_speaker.o
                0x0010a480                beep
 *fill*         0x0010a4d6        0xa 
 .text.msgbeep  0x0010a4e0       0x1a object_files/kernel/audio/sys_speaker.o
                0x0010a4e0                msgbeep
 .text          0x0010a4fa        0x0 object_files/kernel/audio/ac97_via.o
 *fill*         0x0010a4fa        0x6 
 .text.codec_readStatus.constprop.1
                0x0010a500       0xce object_files/kernel/audio/ac97_via.o
 *fill*         0x0010a5ce        0x2 
 .text.codec_sendCommand.constprop.2
                0x0010a5d0       0x81 object_files/kernel/audio/ac97_via.o
 *fill*         0x0010a651        0xf 
 .text.ac97Via_install
                0x0010a660      0x2ca object_files/kernel/audio/ac97_via.o
                0x0010a660                ac97Via_install
 *fill*         0x0010a92a        0x6 
 .text.ac97Via_start
                0x0010a930       0x62 object_files/kernel/audio/ac97_via.o
                0x0010a930                ac97Via_start
 *fill*         0x0010a992        0xe 
 .text.ac97Via_stop
                0x0010a9a0       0x15 object_files/kernel/audio/ac97_via.o
                0x0010a9a0                ac97Via_stop
 .text          0x0010a9b5        0x0 object_files/kernel/cdi/cdi.o
 *fill*         0x0010a9b5        0xb 
 .text.cdi_driver_init
                0x0010a9c0       0x13 object_files/kernel/cdi/cdi.o
                0x0010a9c0                cdi_driver_init
 *fill*         0x0010a9d3        0xd 
 .text.cdi_driver_destroy
                0x0010a9e0       0x12 object_files/kernel/cdi/cdi.o
                0x0010a9e0                cdi_driver_destroy
 *fill*         0x0010a9f2        0xe 
 .text.cdi_driver_register
                0x0010aa00       0x35 object_files/kernel/cdi/cdi.o
                0x0010aa00                cdi_driver_register
 *fill*         0x0010aa35        0xb 
 .text.cdi_init
                0x0010aa40      0x168 object_files/kernel/cdi/cdi.o
                0x0010aa40                cdi_init
 *fill*         0x0010aba8        0x8 
 .text.startup.main
                0x0010abb0       0x21 object_files/kernel/cdi/cdi.o
 .text          0x0010abd1        0x0 object_files/kernel/cdi/cdi_mempool.o
 .text          0x0010abd1        0x0 object_files/kernel/cdi/cdi_net.o
 *fill*         0x0010abd1        0xf 
 .text.cdi_net_driver_init
                0x0010abe0       0x12 object_files/kernel/cdi/cdi_net.o
                0x0010abe0                cdi_net_driver_init
 *fill*         0x0010abf2        0xe 
 .text.cdi_net_driver_destroy
                0x0010ac00        0x9 object_files/kernel/cdi/cdi_net.o
                0x0010ac00                cdi_net_driver_destroy
 *fill*         0x0010ac09        0x7 
 .text.cdi_net_device_init
                0x0010ac10       0x8d object_files/kernel/cdi/cdi_net.o
                0x0010ac10                cdi_net_device_init
 *fill*         0x0010ac9d        0x3 
 .text.cdi_net_receive
                0x0010aca0       0x12 object_files/kernel/cdi/cdi_net.o
                0x0010aca0                cdi_net_receive
 .text          0x0010acb2        0x0 object_files/kernel/cdi/cdi_lists.o
 *fill*         0x0010acb2        0xe 
 .text.cdi_list_create
                0x0010acc0        0x9 object_files/kernel/cdi/cdi_lists.o
                0x0010acc0                cdi_list_create
 *fill*         0x0010acc9        0x7 
 .text.cdi_list_destroy
                0x0010acd0        0x9 object_files/kernel/cdi/cdi_lists.o
                0x0010acd0                cdi_list_destroy
 *fill*         0x0010acd9        0x7 
 .text.cdi_list_push
                0x0010ace0       0x26 object_files/kernel/cdi/cdi_lists.o
                0x0010ace0                cdi_list_push
 *fill*         0x0010ad06        0xa 
 .text.cdi_list_pop
                0x0010ad10       0x1d object_files/kernel/cdi/cdi_lists.o
                0x0010ad10                cdi_list_pop
 *fill*         0x0010ad2d        0x3 
 .text.cdi_list_empty
                0x0010ad30       0x13 object_files/kernel/cdi/cdi_lists.o
                0x0010ad30                cdi_list_empty
 *fill*         0x0010ad43        0xd 
 .text.cdi_list_get
                0x0010ad50       0x24 object_files/kernel/cdi/cdi_lists.o
                0x0010ad50                cdi_list_get
 *fill*         0x0010ad74        0xc 
 .text.cdi_list_insert
                0x0010ad80       0x27 object_files/kernel/cdi/cdi_lists.o
                0x0010ad80                cdi_list_insert
 *fill*         0x0010ada7        0x9 
 .text.cdi_list_remove
                0x0010adb0       0x28 object_files/kernel/cdi/cdi_lists.o
                0x0010adb0                cdi_list_remove
 *fill*         0x0010add8        0x8 
 .text.cdi_list_size
                0x0010ade0       0x1c object_files/kernel/cdi/cdi_lists.o
                0x0010ade0                cdi_list_size
 .text          0x0010adfc        0x0 object_files/kernel/cdi/cdi_mem.o
 *fill*         0x0010adfc        0x4 
 .text.cdi_mem_alloc
                0x0010ae00       0xb4 object_files/kernel/cdi/cdi_mem.o
                0x0010ae00                cdi_mem_alloc
 *fill*         0x0010aeb4        0xc 
 .text.cdi_mem_map
                0x0010aec0       0x84 object_files/kernel/cdi/cdi_mem.o
                0x0010aec0                cdi_mem_map
 *fill*         0x0010af44        0xc 
 .text.cdi_mem_free
                0x0010af50       0x5e object_files/kernel/cdi/cdi_mem.o
                0x0010af50                cdi_mem_free
 *fill*         0x0010afae        0x2 
 .text.cdi_mem_require_flags
                0x0010afb0       0x3a object_files/kernel/cdi/cdi_mem.o
                0x0010afb0                cdi_mem_require_flags
 *fill*         0x0010afea        0x6 
 .text.cdi_mem_copy
                0x0010aff0       0x47 object_files/kernel/cdi/cdi_mem.o
                0x0010aff0                cdi_mem_copy
 .text          0x0010b037        0x0 object_files/kernel/cdi/cdi_scsi.o
 .text          0x0010b037        0x0 object_files/kernel/cdi/cdi_audio.o
 .text          0x0010b037        0x0 object_files/kernel/cdi/cdi_cache.o
 .text          0x0010b037        0x0 object_files/kernel/cdi/cdi_dma.o
 *fill*         0x0010b037        0x9 
 .text.cdi_dma_open
                0x0010b040       0x21 object_files/kernel/cdi/cdi_dma.o
                0x0010b040                cdi_dma_open
 *fill*         0x0010b061        0xf 
 .text.cdi_dma_read
                0x0010b070       0x2a object_files/kernel/cdi/cdi_dma.o
                0x0010b070                cdi_dma_read
 *fill*         0x0010b09a        0x6 
 .text.cdi_dma_write
                0x0010b0a0       0x2a object_files/kernel/cdi/cdi_dma.o
                0x0010b0a0                cdi_dma_write
 *fill*         0x0010b0ca        0x6 
 .text.cdi_dma_close
                0x0010b0d0        0x7 object_files/kernel/cdi/cdi_dma.o
                0x0010b0d0                cdi_dma_close
 .text          0x0010b0d7        0x0 object_files/kernel/cdi/cdi_usb.o
 .text          0x0010b0d7        0x0 object_files/kernel/cdi/cdi_storage.o
 *fill*         0x0010b0d7        0x9 
 .text.cdi_storage_driver_init
                0x0010b0e0       0x12 object_files/kernel/cdi/cdi_storage.o
                0x0010b0e0                cdi_storage_driver_init
 *fill*         0x0010b0f2        0xe 
 .text.cdi_storage_driver_destroy
                0x0010b100        0x9 object_files/kernel/cdi/cdi_storage.o
                0x0010b100                cdi_storage_driver_destroy
 *fill*         0x0010b109        0x7 
 .text.cdi_storage_device_init
                0x0010b110        0x5 object_files/kernel/cdi/cdi_storage.o
                0x0010b110                cdi_storage_device_init
 .text          0x0010b115        0x0 object_files/kernel/cdi/cdi_pci.o
 *fill*         0x0010b115        0xb 
 .text.cdi_pci_get_all_devices
                0x0010b120      0x119 object_files/kernel/cdi/cdi_pci.o
                0x0010b120                cdi_pci_get_all_devices
 *fill*         0x0010b239        0x7 
 .text.cdi_pci_device_destroy
                0x0010b240       0x52 object_files/kernel/cdi/cdi_pci.o
                0x0010b240                cdi_pci_device_destroy
 *fill*         0x0010b292        0xe 
 .text.cdi_pci_alloc_ioports
                0x0010b2a0        0x5 object_files/kernel/cdi/cdi_pci.o
                0x0010b2a0                cdi_pci_alloc_ioports
 *fill*         0x0010b2a5        0xb 
 .text.cdi_pci_config_readb
                0x0010b2b0       0x1a object_files/kernel/cdi/cdi_pci.o
                0x0010b2b0                cdi_pci_config_readb
 *fill*         0x0010b2ca        0x6 
 .text.cdi_pci_config_readw
                0x0010b2d0       0x1a object_files/kernel/cdi/cdi_pci.o
                0x0010b2d0                cdi_pci_config_readw
 *fill*         0x0010b2ea        0x6 
 .text.cdi_pci_config_readl
                0x0010b2f0       0x1a object_files/kernel/cdi/cdi_pci.o
                0x0010b2f0                cdi_pci_config_readl
 *fill*         0x0010b30a        0x6 
 .text.cdi_pci_config_writeb
                0x0010b310       0x20 object_files/kernel/cdi/cdi_pci.o
                0x0010b310                cdi_pci_config_writeb
 .text.cdi_pci_config_writew
                0x0010b330       0x20 object_files/kernel/cdi/cdi_pci.o
                0x0010b330                cdi_pci_config_writew
 .text.cdi_pci_config_writel
                0x0010b350       0x19 object_files/kernel/cdi/cdi_pci.o
                0x0010b350                cdi_pci_config_writel
 .text          0x0010b369        0x0 object_files/kernel/cdi/cdi_misc.o
 *fill*         0x0010b369        0x7 
 .text.cdi_register_irq
                0x0010b370       0x10 object_files/kernel/cdi/cdi_misc.o
                0x0010b370                cdi_register_irq
 .text.cdi_reset_wait_irq
                0x0010b380       0x14 object_files/kernel/cdi/cdi_misc.o
                0x0010b380                cdi_reset_wait_irq
 *fill*         0x0010b394        0xc 
 .text.cdi_wait_irq
                0x0010b3a0       0x1d object_files/kernel/cdi/cdi_misc.o
                0x0010b3a0                cdi_wait_irq
 *fill*         0x0010b3bd        0x3 
 .text.cdi_sleep_ms
                0x0010b3c0        0x9 object_files/kernel/cdi/cdi_misc.o
                0x0010b3c0                cdi_sleep_ms
 *fill*         0x0010b3c9        0x7 
 .text.cdi_elapsed_ms
                0x0010b3d0        0xf object_files/kernel/cdi/cdi_misc.o
                0x0010b3d0                cdi_elapsed_ms
 .text          0x0010b3df        0x0 object_files/kernel/cdi/cdi_fs.o
 *fill*         0x0010b3df        0x1 
 .text.cdi_fs_driver_init
                0x0010b3e0       0x18 object_files/kernel/cdi/cdi_fs.o
                0x0010b3e0                cdi_fs_driver_init
 *fill*         0x0010b3f8        0x8 
 .text.cdi_fs_driver_destroy
                0x0010b400        0x5 object_files/kernel/cdi/cdi_fs.o
                0x0010b400                cdi_fs_driver_destroy
 *fill*         0x0010b405        0xb 
 .text.cdi_fs_driver_register
                0x0010b410       0x1d object_files/kernel/cdi/cdi_fs.o
                0x0010b410                cdi_fs_driver_register
 .text          0x0010b42d        0x0 object_files/kernel/cdi/cdi_bios.o
 .text          0x0010b42d        0x0 object_files/kernel/filesystem/fsmanager.o
 *fill*         0x0010b42d        0x3 
 .text.folderAccess_internal
                0x0010b430       0xa1 object_files/kernel/filesystem/fsmanager.o
 *fill*         0x0010b4d1        0xf 
 .text.getFolder_recursive
                0x0010b4e0      0x16b object_files/kernel/filesystem/fsmanager.o
 *fill*         0x0010b64b        0x5 
 .text.indentNewLine
                0x0010b650       0x40 object_files/kernel/filesystem/fsmanager.o
 .text.logSubtree
                0x0010b690      0x151 object_files/kernel/filesystem/fsmanager.o
 *fill*         0x0010b7e1        0xf 
 .text.getFolder
                0x0010b7f0       0xdb object_files/kernel/filesystem/fsmanager.o
 *fill*         0x0010b8cb        0x5 
 .text.getFilename
                0x0010b8d0       0x35 object_files/kernel/filesystem/fsmanager.o
                0x0010b8d0                getFilename
 *fill*         0x0010b905        0xb 
 .text.fopen    0x0010b910      0x2ee object_files/kernel/filesystem/fsmanager.o
                0x0010b910                fopen
 *fill*         0x0010bbfe        0x2 
 .text.fclose_task
                0x0010bc00       0x74 object_files/kernel/filesystem/fsmanager.o
                0x0010bc00                fclose_task
 *fill*         0x0010bc74        0xc 
 .text.fclose   0x0010bc80       0x19 object_files/kernel/filesystem/fsmanager.o
                0x0010bc80                fclose
 *fill*         0x0010bc99        0x7 
 .text.fmove    0x0010bca0      0x24a object_files/kernel/filesystem/fsmanager.o
                0x0010bca0                fmove
 *fill*         0x0010beea        0x6 
 .text.fgetc    0x0010bef0       0x37 object_files/kernel/filesystem/fsmanager.o
                0x0010bef0                fgetc
 *fill*         0x0010bf27        0x9 
 .text.fputc    0x0010bf30       0x28 object_files/kernel/filesystem/fsmanager.o
                0x0010bf30                fputc
 *fill*         0x0010bf58        0x8 
 .text.fgets    0x0010bf60       0x95 object_files/kernel/filesystem/fsmanager.o
                0x0010bf60                fgets
 *fill*         0x0010bff5        0xb 
 .text.fputs    0x0010c000       0x4b object_files/kernel/filesystem/fsmanager.o
                0x0010c000                fputs
 *fill*         0x0010c04b        0x5 
 .text.fread    0x0010c050       0x2a object_files/kernel/filesystem/fsmanager.o
                0x0010c050                fread
 *fill*         0x0010c07a        0x6 
 .text.fwrite   0x0010c080       0x2a object_files/kernel/filesystem/fsmanager.o
                0x0010c080                fwrite
 *fill*         0x0010c0aa        0x6 
 .text.fflush   0x0010c0b0       0x24 object_files/kernel/filesystem/fsmanager.o
                0x0010c0b0                fflush
 *fill*         0x0010c0d4        0xc 
 .text.ftell    0x0010c0e0        0xb object_files/kernel/filesystem/fsmanager.o
                0x0010c0e0                ftell
 *fill*         0x0010c0eb        0x5 
 .text.fseek    0x0010c0f0       0x10 object_files/kernel/filesystem/fsmanager.o
                0x0010c0f0                fseek
 .text.rewind   0x0010c100       0x17 object_files/kernel/filesystem/fsmanager.o
                0x0010c100                rewind
 *fill*         0x0010c117        0x9 
 .text.feof     0x0010c120        0xc object_files/kernel/filesystem/fsmanager.o
                0x0010c120                feof
 *fill*         0x0010c12c        0x4 
 .text.ferror   0x0010c130       0x18 object_files/kernel/filesystem/fsmanager.o
                0x0010c130                ferror
 *fill*         0x0010c148        0x8 
 .text.clearerr
                0x0010c150        0xf object_files/kernel/filesystem/fsmanager.o
                0x0010c150                clearerr
 *fill*         0x0010c15f        0x1 
 .text.folderAccess
                0x0010c160       0xfe object_files/kernel/filesystem/fsmanager.o
                0x0010c160                folderAccess
 *fill*         0x0010c25e        0x2 
 .text.folderClose
                0x0010c260       0x45 object_files/kernel/filesystem/fsmanager.o
                0x0010c260                folderClose
 *fill*         0x0010c2a5        0xb 
 .text.formatPartition
                0x0010c2b0       0x9e object_files/kernel/filesystem/fsmanager.o
                0x0010c2b0                formatPartition
 *fill*         0x0010c34e        0x2 
 .text.analyzePartition
                0x0010c350       0xd0 object_files/kernel/filesystem/fsmanager.o
                0x0010c350                analyzePartition
 .text.freePartition
                0x0010c420       0x54 object_files/kernel/filesystem/fsmanager.o
                0x0010c420                freePartition
 *fill*         0x0010c474        0xc 
 .text.fsmanager_cleanup
                0x0010c480       0x87 object_files/kernel/filesystem/fsmanager.o
                0x0010c480                fsmanager_cleanup
 *fill*         0x0010c507        0x9 
 .text.fsmanager_log
                0x0010c510       0xd1 object_files/kernel/filesystem/fsmanager.o
                0x0010c510                fsmanager_log
 .text          0x0010c5e1        0x0 object_files/kernel/filesystem/fat.o
 *fill*         0x0010c5e1        0xf 
 .text.FAT_fatRead
                0x0010c5f0      0x1c7 object_files/kernel/filesystem/fat.o
 *fill*         0x0010c7b7        0x9 
 .text.FAT_getNextCluster
                0x0010c7c0       0x8d object_files/kernel/filesystem/fat.o
 *fill*         0x0010c84d        0x3 
 .text.FAT_findEmptyCluster
                0x0010c850       0x8c object_files/kernel/filesystem/fat.o
 *fill*         0x0010c8dc        0x4 
 .text.FAT_fatWrite
                0x0010c8e0      0x1e7 object_files/kernel/filesystem/fat.o
 *fill*         0x0010cac7        0x9 
 .text.FAT_cluster2sector.part.0
                0x0010cad0       0x2a object_files/kernel/filesystem/fat.o
 *fill*         0x0010cafa        0x6 
 .text.FAT_cacheDirEntry
                0x0010cb00      0x1bc object_files/kernel/filesystem/fat.o
 *fill*         0x0010ccbc        0x4 
 .text.FAT_getDirEntry
                0x0010ccc0       0x4f object_files/kernel/filesystem/fat.o
 *fill*         0x0010cd0f        0x1 
 .text.FAT_fillHandle
                0x0010cd10       0xb8 object_files/kernel/filesystem/fat.o
 *fill*         0x0010cdc8        0x8 
 .text.FAT_writeDirEntry
                0x0010cdd0       0x82 object_files/kernel/filesystem/fat.o
 *fill*         0x0010ce52        0xe 
 .text.FAT_eraseCluster
                0x0010ce60       0xdc object_files/kernel/filesystem/fat.o
 *fill*         0x0010cf3c        0x4 
 .text.FAT_allocateNewCluster
                0x0010cf40       0x80 object_files/kernel/filesystem/fat.o
 .text.FAT_fdopen.part.1
                0x0010cfc0       0xeb object_files/kernel/filesystem/fat.o
 *fill*         0x0010d0ab        0x5 
 .text.FAT_FormatFileName
                0x0010d0b0      0x215 object_files/kernel/filesystem/fat.o
 *fill*         0x0010d2c5        0xb 
 .text.FAT_lookForHandle
                0x0010d2d0      0x11d object_files/kernel/filesystem/fat.o
 *fill*         0x0010d3ed        0x3 
 .text.FAT_findEmptyDirEntry
                0x0010d3f0       0xb1 object_files/kernel/filesystem/fat.o
                0x0010d3f0                FAT_findEmptyDirEntry
 *fill*         0x0010d4a1        0xf 
 .text.FAT_createDirEntry
                0x0010d4b0      0x1cb object_files/kernel/filesystem/fat.o
                0x0010d4b0                FAT_createDirEntry
 *fill*         0x0010d67b        0x5 
 .text.FAT_eraseHandle
                0x0010d680      0x11f object_files/kernel/filesystem/fat.o
                0x0010d680                FAT_eraseHandle
 *fill*         0x0010d79f        0x1 
 .text.FAT_fopen
                0x0010d7a0      0x152 object_files/kernel/filesystem/fat.o
                0x0010d7a0                FAT_fopen
 *fill*         0x0010d8f2        0xe 
 .text.FAT_fread
                0x0010d900      0x220 object_files/kernel/filesystem/fat.o
                0x0010d900                FAT_fread
 .text.FAT_fseek
                0x0010db20      0x130 object_files/kernel/filesystem/fat.o
                0x0010db20                FAT_fseek
 .text.FAT_remove
                0x0010dc50       0x46 object_files/kernel/filesystem/fat.o
                0x0010dc50                FAT_remove
 *fill*         0x0010dc96        0xa 
 .text.FAT_rename
                0x0010dca0       0x8d object_files/kernel/filesystem/fat.o
                0x0010dca0                FAT_rename
 *fill*         0x0010dd2d        0x3 
 .text.FAT_fwrite
                0x0010dd30      0x253 object_files/kernel/filesystem/fat.o
                0x0010dd30                FAT_fwrite
 *fill*         0x0010df83        0xd 
 .text.FAT_fclose
                0x0010df90       0xcc object_files/kernel/filesystem/fat.o
                0x0010df90                FAT_fclose
 *fill*         0x0010e05c        0x4 
 .text.FAT_folderAccess
                0x0010e060      0x4f7 object_files/kernel/filesystem/fat.o
                0x0010e060                FAT_folderAccess
 *fill*         0x0010e557        0x9 
 .text.FAT_folderClose
                0x0010e560       0x50 object_files/kernel/filesystem/fat.o
                0x0010e560                FAT_folderClose
 .text.FAT_format
                0x0010e5b0      0xac0 object_files/kernel/filesystem/fat.o
                0x0010e5b0                FAT_format
 .text.FAT_pinstall
                0x0010f070      0x2d9 object_files/kernel/filesystem/fat.o
                0x0010f070                FAT_pinstall
 *fill*         0x0010f349        0x7 
 .text.FAT_pfree
                0x0010f350       0x22 object_files/kernel/filesystem/fat.o
                0x0010f350                FAT_pfree
 .text          0x0010f372        0x0 object_files/kernel/filesystem/ramdisk.o
 *fill*         0x0010f372        0xe 
 .text.ramdisk_install
                0x0010f380       0xf3 object_files/kernel/filesystem/ramdisk.o
                0x0010f380                ramdisk_install
 *fill*         0x0010f473        0xd 
 .text.ramdisk_openFile
                0x0010f480       0xea object_files/kernel/filesystem/ramdisk.o
                0x0010f480                ramdisk_openFile
 *fill*         0x0010f56a        0x6 
 .text.ramdisk_fclose
                0x0010f570        0x7 object_files/kernel/filesystem/ramdisk.o
                0x0010f570                ramdisk_fclose
 *fill*         0x0010f577        0x9 
 .text.ramdisk_fseek
                0x0010f580       0x7c object_files/kernel/filesystem/ramdisk.o
                0x0010f580                ramdisk_fseek
 *fill*         0x0010f5fc        0x4 
 .text.ramdisk_fread
                0x0010f600       0x8a object_files/kernel/filesystem/ramdisk.o
                0x0010f600                ramdisk_fread
 *fill*         0x0010f68a        0x6 
 .text.ramdisk_fwrite
                0x0010f690       0xe9 object_files/kernel/filesystem/ramdisk.o
                0x0010f690                ramdisk_fwrite
 *fill*         0x0010f779        0x7 
 .text.ramdisk_fflush
                0x0010f780        0x7 object_files/kernel/filesystem/ramdisk.o
                0x0010f780                ramdisk_fflush
 *fill*         0x0010f787        0x9 
 .text.ramdisk_loadShell
                0x0010f790       0x38 object_files/kernel/filesystem/ramdisk.o
                0x0010f790                ramdisk_loadShell
 *fill*         0x0010f7c8        0x8 
 .text.ramdisk_folderAccess
                0x0010f7d0       0x17 object_files/kernel/filesystem/ramdisk.o
                0x0010f7d0                ramdisk_folderAccess
 .text          0x0010f7e7        0x0 object_files/kernel/filesystem/fat12.o
 *fill*         0x0010f7e7        0x9 
 .text.flpydsk_read_directory
                0x0010f7f0      0x255 object_files/kernel/filesystem/fat12.o
                0x0010f7f0                flpydsk_read_directory
 .text          0x0010fa45        0x0 object_files/kernel/hid/keyboard.o
 *fill*         0x0010fa45        0xb 
 .text.keyboard_install
                0x0010fa50       0x3e object_files/kernel/hid/keyboard.o
                0x0010fa50                keyboard_install
 *fill*         0x0010fa8e        0x2 
 .text.keyboard_keyPressedEvent
                0x0010fa90      0x33a object_files/kernel/hid/keyboard.o
                0x0010fa90                keyboard_keyPressedEvent
 *fill*         0x0010fdca        0x6 
 .text.keyboard_handler
                0x0010fdd0      0x132 object_files/kernel/hid/keyboard.o
 *fill*         0x0010ff02        0xe 
 .text.getch    0x0010ff10       0x59 object_files/kernel/hid/keyboard.o
                0x0010ff10                getch
 *fill*         0x0010ff69        0x7 
 .text.keyPressed
                0x0010ff70        0xf object_files/kernel/hid/keyboard.o
                0x0010ff70                keyPressed
 .text          0x0010ff7f        0x0 object_files/kernel/hid/mouse.o
 *fill*         0x0010ff7f        0x1 
 .text.mouse_wait
                0x0010ff80       0x77 object_files/kernel/hid/mouse.o
 *fill*         0x0010fff7        0x9 
 .text.mouse_write
                0x00110000       0x3c object_files/kernel/hid/mouse.o
 *fill*         0x0011003c        0x4 
 .text.mouse_setsamples
                0x00110040       0x3d object_files/kernel/hid/mouse.o
 *fill*         0x0011007d        0x3 
 .text.mouse_wheelEvent.part.1
                0x00110080       0x35 object_files/kernel/hid/mouse.o
 *fill*         0x001100b5        0xb 
 .text.mouse_moveEvent.part.2
                0x001100c0       0xb7 object_files/kernel/hid/mouse.o
 *fill*         0x00110177        0x9 
 .text.mouse_print.part.3
                0x00110180       0xfd object_files/kernel/hid/mouse.o
 *fill*         0x0011027d        0x3 
 .text.mouse_install
                0x00110280      0x10b object_files/kernel/hid/mouse.o
                0x00110280                mouse_install
 *fill*         0x0011038b        0x5 
 .text.mouse_setPosition
                0x00110390       0x15 object_files/kernel/hid/mouse.o
                0x00110390                mouse_setPosition
 *fill*         0x001103a5        0xb 
 .text.mouse_getPosition
                0x001103b0       0x1b object_files/kernel/hid/mouse.o
                0x001103b0                mouse_getPosition
 *fill*         0x001103cb        0x5 
 .text.mouse_buttonPressed
                0x001103d0       0x15 object_files/kernel/hid/mouse.o
                0x001103d0                mouse_buttonPressed
 *fill*         0x001103e5        0xb 
 .text.mouse_buttonEvent
                0x001103f0       0x5e object_files/kernel/hid/mouse.o
                0x001103f0                mouse_buttonEvent
 *fill*         0x0011044e        0x2 
 .text.mouse_handler
                0x00110450      0x2c8 object_files/kernel/hid/mouse.o
 *fill*         0x00110718        0x8 
 .text.mouse_wheelEvent
                0x00110720       0x2c object_files/kernel/hid/mouse.o
                0x00110720                mouse_wheelEvent
 *fill*         0x0011074c        0x4 
 .text.mouse_moveEvent
                0x00110750       0x2c object_files/kernel/hid/mouse.o
                0x00110750                mouse_moveEvent
 *fill*         0x0011077c        0x4 
 .text.mouse_print
                0x00110780       0x22 object_files/kernel/hid/mouse.o
                0x00110780                mouse_print
 *fill*         0x001107a2        0xe 
 .text.mouse_uninstall
                0x001107b0       0x20 object_files/kernel/hid/mouse.o
                0x001107b0                mouse_uninstall
 .text          0x001107d0        0x0 object_files/kernel/hid/usb_hid.o
 .text.parseMouseReport
                0x001107d0       0x66 object_files/kernel/hid/usb_hid.o
 *fill*         0x00110836        0xa 
 .text.parseFlag
                0x00110840       0x3a object_files/kernel/hid/usb_hid.o
 *fill*         0x0011087a        0x6 
 .text.parseKeyboardReport
                0x00110880      0x1d6 object_files/kernel/hid/usb_hid.o
 *fill*         0x00110a56        0xa 
 .text.usb_setupHID
                0x00110a60      0x221 object_files/kernel/hid/usb_hid.o
                0x00110a60                usb_setupHID
 *fill*         0x00110c81        0xf 
 .text.usb_destroyHID
                0x00110c90       0x37 object_files/kernel/hid/usb_hid.o
                0x00110c90                usb_destroyHID
 .text          0x00110cc7        0x0 object_files/kernel/netprotocol/udp.o
 *fill*         0x00110cc7        0x9 
 .text.udp_bind
                0x00110cd0       0x7b object_files/kernel/netprotocol/udp.o
                0x00110cd0                udp_bind
 *fill*         0x00110d4b        0x5 
 .text.udp_unbind
                0x00110d50       0x49 object_files/kernel/netprotocol/udp.o
                0x00110d50                udp_unbind
 *fill*         0x00110d99        0x7 
 .text.udp_cleanup
                0x00110da0       0x43 object_files/kernel/netprotocol/udp.o
                0x00110da0                udp_cleanup
 *fill*         0x00110de3        0xd 
 .text.udp_receive
                0x00110df0      0x102 object_files/kernel/netprotocol/udp.o
                0x00110df0                udp_receive
 *fill*         0x00110ef2        0xe 
 .text.udp_send
                0x00110f00       0x9e object_files/kernel/netprotocol/udp.o
                0x00110f00                udp_send
 *fill*         0x00110f9e        0x2 
 .text.udp_usend
                0x00110fa0       0x44 object_files/kernel/netprotocol/udp.o
                0x00110fa0                udp_usend
 .text          0x00110fe4        0x0 object_files/kernel/netprotocol/icmp.o
 *fill*         0x00110fe4        0xc 
 .text.icmp_sendEchoRequest
                0x00110ff0       0xd2 object_files/kernel/netprotocol/icmp.o
                0x00110ff0                icmp_sendEchoRequest
 *fill*         0x001110c2        0xe 
 .text.icmp_receive
                0x001110d0      0x169 object_files/kernel/netprotocol/icmp.o
                0x001110d0                icmp_receive
 .text          0x00111239        0x0 object_files/kernel/netprotocol/ipv4.o
 *fill*         0x00111239        0x7 
 .text.ipv4_sendPacket
                0x00111240       0x8f object_files/kernel/netprotocol/ipv4.o
 *fill*         0x001112cf        0x1 
 .text.ipv4_received
                0x001112d0       0xc7 object_files/kernel/netprotocol/ipv4.o
                0x001112d0                ipv4_received
 *fill*         0x00111397        0x9 
 .text.ipv4_send
                0x001113a0      0x18f object_files/kernel/netprotocol/ipv4.o
                0x001113a0                ipv4_send
 .text          0x0011152f        0x0 object_files/kernel/netprotocol/ipv6.o
 *fill*         0x0011152f        0x1 
 .text.ipv6_received
                0x00111530      0x139 object_files/kernel/netprotocol/ipv6.o
                0x00111530                ipv6_received
 *fill*         0x00111669        0x7 
 .text.ipv6_send
                0x00111670       0x8d object_files/kernel/netprotocol/ipv6.o
                0x00111670                ipv6_send
 .text          0x001116fd        0x0 object_files/kernel/netprotocol/ethernet.o
 *fill*         0x001116fd        0x3 
 .text.ethernet_received
                0x00111700       0xf5 object_files/kernel/netprotocol/ethernet.o
                0x00111700                ethernet_received
 *fill*         0x001117f5        0xb 
 .text.ethernet_send
                0x00111800       0x9d object_files/kernel/netprotocol/ethernet.o
                0x00111800                ethernet_send
 .text          0x0011189d        0x0 object_files/kernel/netprotocol/arp.o
 *fill*         0x0011189d        0x3 
 .text.arp_checkTable
                0x001118a0       0x81 object_files/kernel/netprotocol/arp.o
 *fill*         0x00111921        0xf 
 .text.arp_deleteTableEntry
                0x00111930       0x25 object_files/kernel/netprotocol/arp.o
                0x00111930                arp_deleteTableEntry
 *fill*         0x00111955        0xb 
 .text.arp_findEntry
                0x00111960       0x5d object_files/kernel/netprotocol/arp.o
                0x00111960                arp_findEntry
 *fill*         0x001119bd        0x3 
 .text.arp_addTableEntry
                0x001119c0       0x71 object_files/kernel/netprotocol/arp.o
                0x001119c0                arp_addTableEntry
 *fill*         0x00111a31        0xf 
 .text.arp_showTable
                0x00111a40       0xcf object_files/kernel/netprotocol/arp.o
                0x00111a40                arp_showTable
 *fill*         0x00111b0f        0x1 
 .text.arp_initTable
                0x00111b10       0x3e object_files/kernel/netprotocol/arp.o
                0x00111b10                arp_initTable
 *fill*         0x00111b4e        0x2 
 .text.arp_deleteTable
                0x00111b50        0x9 object_files/kernel/netprotocol/arp.o
                0x00111b50                arp_deleteTable
 *fill*         0x00111b59        0x7 
 .text.arp_received
                0x00111b60       0xf2 object_files/kernel/netprotocol/arp.o
                0x00111b60                arp_received
 *fill*         0x00111c52        0xe 
 .text.arp_sendRequest
                0x00111c60       0x6f object_files/kernel/netprotocol/arp.o
                0x00111c60                arp_sendRequest
 *fill*         0x00111ccf        0x1 
 .text.arp_waitForReply
                0x00111cd0       0x69 object_files/kernel/netprotocol/arp.o
                0x00111cd0                arp_waitForReply
 .text          0x00111d39        0x0 object_files/kernel/netprotocol/tcp.o
 *fill*         0x00111d39        0x7 
 .text.tcp_timeoutDeleteConnection
                0x00111d40       0x39 object_files/kernel/netprotocol/tcp.o
 *fill*         0x00111d79        0x7 
 .text.tcp_deleteInBuffers.part.1
                0x00111d80       0xaa object_files/kernel/netprotocol/tcp.o
 *fill*         0x00111e2a        0x6 
 .text.tcp_deleteConnection.part.2
                0x00111e30      0x148 object_files/kernel/netprotocol/tcp.o
 *fill*         0x00111f78        0x8 
 .text.scheduledDeleteConnection
                0x00111f80       0x35 object_files/kernel/netprotocol/tcp.o
 *fill*         0x00111fb5        0xb 
 .text.tcp_findConnection
                0x00111fc0       0xca object_files/kernel/netprotocol/tcp.o
                0x00111fc0                tcp_findConnection
 *fill*         0x0011208a        0x6 
 .text.tcp_createConnection
                0x00112090       0x9f object_files/kernel/netprotocol/tcp.o
                0x00112090                tcp_createConnection
 *fill*         0x0011212f        0x1 
 .text.tcp_deleteConnection
                0x00112130       0x12 object_files/kernel/netprotocol/tcp.o
                0x00112130                tcp_deleteConnection
 *fill*         0x00112142        0xe 
 .text.tcp_cleanup
                0x00112150       0x42 object_files/kernel/netprotocol/tcp.o
                0x00112150                tcp_cleanup
 *fill*         0x00112192        0xe 
 .text.tcp_bind
                0x001121a0       0x34 object_files/kernel/netprotocol/tcp.o
                0x001121a0                tcp_bind
 *fill*         0x001121d4        0xc 
 .text.tcp_send
                0x001121e0      0x309 object_files/kernel/netprotocol/tcp.o
                0x001121e0                tcp_send
 *fill*         0x001124e9        0x7 
 .text.tcp_connect
                0x001124f0       0xae object_files/kernel/netprotocol/tcp.o
                0x001124f0                tcp_connect
 *fill*         0x0011259e        0x2 
 .text.tcp_close
                0x001125a0      0x10b object_files/kernel/netprotocol/tcp.o
                0x001125a0                tcp_close
 *fill*         0x001126ab        0x5 
 .text.tcp_receive
                0x001126b0      0xe08 object_files/kernel/netprotocol/tcp.o
                0x001126b0                tcp_receive
 *fill*         0x001134b8        0x8 
 .text.tcp_showConnections
                0x001134c0       0xc0 object_files/kernel/netprotocol/tcp.o
                0x001134c0                tcp_showConnections
 .text.tcp_uconnect
                0x00113580       0x80 object_files/kernel/netprotocol/tcp.o
                0x00113580                tcp_uconnect
 .text.tcp_usend
                0x00113600      0x39a object_files/kernel/netprotocol/tcp.o
                0x00113600                tcp_usend
 *fill*         0x0011399a        0x6 
 .text.tcp_uclose
                0x001139a0       0x64 object_files/kernel/netprotocol/tcp.o
                0x001139a0                tcp_uclose
 .text          0x00113a04        0x0 object_files/kernel/netprotocol/dhcp.o
 *fill*         0x00113a04        0xc 
 .text.DHCP_preparePacket
                0x00113a10       0xae object_files/kernel/netprotocol/dhcp.o
 *fill*         0x00113abe        0x2 
 .text.DHCP_Discover
                0x00113ac0       0x95 object_files/kernel/netprotocol/dhcp.o
                0x00113ac0                DHCP_Discover
 *fill*         0x00113b55        0xb 
 .text.DHCP_Request
                0x00113b60      0x116 object_files/kernel/netprotocol/dhcp.o
                0x00113b60                DHCP_Request
 *fill*         0x00113c76        0xa 
 .text.DHCP_Inform
                0x00113c80       0xa6 object_files/kernel/netprotocol/dhcp.o
                0x00113c80                DHCP_Inform
 *fill*         0x00113d26        0xa 
 .text.DHCP_Release
                0x00113d30       0x96 object_files/kernel/netprotocol/dhcp.o
                0x00113d30                DHCP_Release
 *fill*         0x00113dc6        0xa 
 .text.DHCP_AnalyzeServerMessage
                0x00113dd0      0x281 object_files/kernel/netprotocol/dhcp.o
                0x00113dd0                DHCP_AnalyzeServerMessage
 .text          0x00114051        0x0 object_files/kernel/network/e1000.o
 *fill*         0x00114051        0xf 
 .text.e1000e_read_flash
                0x00114060      0x1ba object_files/kernel/network/e1000.o
 *fill*         0x0011421a        0x6 
 .text.e1000_write_eeprom_bits
                0x00114220       0xc0 object_files/kernel/network/e1000.o
 .text.e1000_handle_interrupt
                0x001142e0      0x114 object_files/kernel/network/e1000.o
 *fill*         0x001143f4        0xc 
 .text.e1000_read_eerd
                0x00114400       0x6c object_files/kernel/network/e1000.o
 *fill*         0x0011446c        0x4 
 .text.e1000_init_device
                0x00114470      0x6f9 object_files/kernel/network/e1000.o
                0x00114470                e1000_init_device
 *fill*         0x00114b69        0x7 
 .text.e1000_remove_device
                0x00114b70        0x5 object_files/kernel/network/e1000.o
                0x00114b70                e1000_remove_device
 *fill*         0x00114b75        0xb 
 .text.e1000_send_packet
                0x00114b80       0xce object_files/kernel/network/e1000.o
                0x00114b80                e1000_send_packet
 .text          0x00114c4e        0x0 object_files/kernel/network/netutils.o
 *fill*         0x00114c4e        0x2 
 .text.internetChecksum
                0x00114c50       0x56 object_files/kernel/network/netutils.o
                0x00114c50                internetChecksum
 *fill*         0x00114ca6        0xa 
 .text.udptcpCalculateChecksum
                0x00114cb0       0x70 object_files/kernel/network/netutils.o
                0x00114cb0                udptcpCalculateChecksum
 .text.sameSubnet
                0x00114d20       0x11 object_files/kernel/network/netutils.o
                0x00114d20                sameSubnet
 .text          0x00114d31        0x0 object_files/kernel/network/network.o
 *fill*         0x00114d31        0xf 
 .text.network_handleReceivedBuffer
                0x00114d40       0x20 object_files/kernel/network/network.o
 .text.network_createDevice
                0x00114d60       0x71 object_files/kernel/network/network.o
                0x00114d60                network_createDevice
 *fill*         0x00114dd1        0xf 
 .text.network_installDevice
                0x00114de0      0x1af object_files/kernel/network/network.o
                0x00114de0                network_installDevice
 *fill*         0x00114f8f        0x1 
 .text.network_installCDIDevice
                0x00114f90       0x24 object_files/kernel/network/network.o
                0x00114f90                network_installCDIDevice
 *fill*         0x00114fb4        0xc 
 .text.network_sendPacket
                0x00114fc0       0x70 object_files/kernel/network/network.o
                0x00114fc0                network_sendPacket
 .text.network_receivedPacket
                0x00115030       0x4e object_files/kernel/network/network.o
                0x00115030                network_receivedPacket
 *fill*         0x0011507e        0x2 
 .text.network_displayArpTables
                0x00115080       0x86 object_files/kernel/network/network.o
                0x00115080                network_displayArpTables
 *fill*         0x00115106        0xa 
 .text.network_getAdapter
                0x00115110       0x32 object_files/kernel/network/network.o
                0x00115110                network_getAdapter
 *fill*         0x00115142        0xe 
 .text.network_getFirstAdapter
                0x00115150       0x14 object_files/kernel/network/network.o
                0x00115150                network_getFirstAdapter
 *fill*         0x00115164        0xc 
 .text.getMyIP  0x00115170       0x1a object_files/kernel/network/network.o
                0x00115170                getMyIP
 *fill*         0x0011518a        0x6 
 .text.dns_setServer
                0x00115190       0x22 object_files/kernel/network/network.o
                0x00115190                dns_setServer
 *fill*         0x001151b2        0xe 
 .text.dns_getServer
                0x001151c0       0x22 object_files/kernel/network/network.o
                0x001151c0                dns_getServer
 .text          0x001151e2        0x0 object_files/kernel/network/rtl8168.o
 *fill*         0x001151e2        0xe 
 .text.rtl8168_install
                0x001151f0      0x2cc object_files/kernel/network/rtl8168.o
                0x001151f0                rtl8168_install
 *fill*         0x001154bc        0x4 
 .text.rtl8168_send
                0x001154c0       0xe2 object_files/kernel/network/rtl8168.o
                0x001154c0                rtl8168_send
 *fill*         0x001155a2        0xe 
 .text.rtl8168_handler
                0x001155b0      0x1f8 object_files/kernel/network/rtl8168.o
                0x001155b0                rtl8168_handler
 .text          0x001157a8        0x0 object_files/kernel/network/e1000_cdi.o
 *fill*         0x001157a8        0x8 
 .text.e1000_driver_destroy
                0x001157b0       0x14 object_files/kernel/network/e1000_cdi.o
 *fill*         0x001157c4        0xc 
 .text.e1000_driver_init
                0x001157d0       0x14 object_files/kernel/network/e1000_cdi.o
 .text          0x001157e4        0x0 object_files/kernel/network/pcnet.o
 *fill*         0x001157e4        0xc 
 .text.PCNet_install
                0x001157f0      0x342 object_files/kernel/network/pcnet.o
                0x001157f0                PCNet_install
 *fill*         0x00115b32        0xe 
 .text.PCNet_send
                0x00115b40       0xc3 object_files/kernel/network/pcnet.o
                0x00115b40                PCNet_send
 *fill*         0x00115c03        0xd 
 .text.PCNet_handler
                0x00115c10      0x165 object_files/kernel/network/pcnet.o
                0x00115c10                PCNet_handler
 .text          0x00115d75        0x0 object_files/kernel/network/rtl8139.o
 *fill*         0x00115d75        0xb 
 .text.rtl8139_handler
                0x00115d80      0x317 object_files/kernel/network/rtl8139.o
                0x00115d80                rtl8139_handler
 *fill*         0x00116097        0x9 
 .text.rtl8139_install
                0x001160a0      0x29e object_files/kernel/network/rtl8139.o
                0x001160a0                rtl8139_install
 *fill*         0x0011633e        0x2 
 .text.rtl8139_send
                0x00116340      0x113 object_files/kernel/network/rtl8139.o
                0x00116340                rtl8139_send
 .text          0x00116453        0x0 object_files/kernel/storage/hdd.o
 .text          0x00116453        0x0 object_files/kernel/storage/ata.o
 .text          0x00116453        0x0 object_files/kernel/storage/usb_msd.o
 *fill*         0x00116453        0xd 
 .text.formatSCSICommand
                0x00116460      0x119 object_files/kernel/storage/usb_msd.o
 *fill*         0x00116579        0x7 
 .text.formatSCSICommandUFI
                0x00116580       0xbc object_files/kernel/storage/usb_msd.o
 *fill*         0x0011663c        0x4 
 .text.usb_sendSCSICommand
                0x00116640      0x456 object_files/kernel/storage/usb_msd.o
 *fill*         0x00116a96        0xa 
 .text.usb_setupMSD
                0x00116aa0      0x6ba object_files/kernel/storage/usb_msd.o
                0x00116aa0                usb_setupMSD
 *fill*         0x0011715a        0x6 
 .text.usb_destroyMSD
                0x00117160       0x2a object_files/kernel/storage/usb_msd.o
                0x00117160                usb_destroyMSD
 *fill*         0x0011718a        0x6 
 .text.usb_readSectors
                0x00117190       0x3a object_files/kernel/storage/usb_msd.o
                0x00117190                usb_readSectors
 *fill*         0x001171ca        0x6 
 .text.usb_writeSectors
                0x001171d0      0x147 object_files/kernel/storage/usb_msd.o
                0x001171d0                usb_writeSectors
 .text          0x00117317        0x0 object_files/kernel/storage/devicemanager.o
 *fill*         0x00117317        0x9 
 .text.flushCache.part.0
                0x00117320      0x28e object_files/kernel/storage/devicemanager.o
 *fill*         0x001175ae        0x2 
 .text.deviceManager_fillCache.part.1
                0x001175b0      0x24c object_files/kernel/storage/devicemanager.o
 *fill*         0x001177fc        0x4 
 .text.deviceManager_install
                0x00117800      0x10f object_files/kernel/storage/devicemanager.o
                0x00117800                deviceManager_install
 *fill*         0x0011790f        0x1 
 .text.deviceManager_checkDrives
                0x00117910       0x9e object_files/kernel/storage/devicemanager.o
                0x00117910                deviceManager_checkDrives
 *fill*         0x001179ae        0x2 
 .text.deviceManager_attachPort
                0x001179b0       0xa7 object_files/kernel/storage/devicemanager.o
                0x001179b0                deviceManager_attachPort
 *fill*         0x00117a57        0x9 
 .text.deviceManager_destructPort
                0x00117a60       0x9d object_files/kernel/storage/devicemanager.o
                0x00117a60                deviceManager_destructPort
 *fill*         0x00117afd        0x3 
 .text.deviceManager_attachDisk
                0x00117b00       0xa7 object_files/kernel/storage/devicemanager.o
                0x00117b00                deviceManager_attachDisk
 *fill*         0x00117ba7        0x9 
 .text.deviceManager_showPortList
                0x00117bb0      0x38a object_files/kernel/storage/devicemanager.o
                0x00117bb0                deviceManager_showPortList
 *fill*         0x00117f3a        0x6 
 .text.deviceManager_showDiskList
                0x00117f40      0x2b5 object_files/kernel/storage/devicemanager.o
                0x00117f40                deviceManager_showDiskList
 *fill*         0x001181f5        0xb 
 .text.deviceManager_getPartition
                0x00118200      0x25c object_files/kernel/storage/devicemanager.o
                0x00118200                deviceManager_getPartition
 *fill*         0x0011845c        0x4 
 .text.deviceManager_flushCaches
                0x00118460       0x7c object_files/kernel/storage/devicemanager.o
                0x00118460                deviceManager_flushCaches
 *fill*         0x001184dc        0x4 
 .text.deviceManager_clearCaches
                0x001184e0       0x66 object_files/kernel/storage/devicemanager.o
                0x001184e0                deviceManager_clearCaches
 *fill*         0x00118546        0xa 
 .text.deviceManager_destructDisk
                0x00118550       0xc5 object_files/kernel/storage/devicemanager.o
                0x00118550                deviceManager_destructDisk
 *fill*         0x00118615        0xb 
 .text.deviceManager_fillCache
                0x00118620       0x41 object_files/kernel/storage/devicemanager.o
                0x00118620                deviceManager_fillCache
 *fill*         0x00118661        0xf 
 .text.sectorWrite
                0x00118670       0x35 object_files/kernel/storage/devicemanager.o
                0x00118670                sectorWrite
 *fill*         0x001186a5        0xb 
 .text.singleSectorWrite
                0x001186b0       0x44 object_files/kernel/storage/devicemanager.o
                0x001186b0                singleSectorWrite
 *fill*         0x001186f4        0xc 
 .text.sectorRead
                0x00118700      0x16a object_files/kernel/storage/devicemanager.o
                0x00118700                sectorRead
 *fill*         0x0011886a        0x6 
 .text.deviceManager_analyzeDisk
                0x00118870      0x229 object_files/kernel/storage/devicemanager.o
                0x00118870                deviceManager_analyzeDisk
 *fill*         0x00118a99        0x7 
 .text.singleSectorRead
                0x00118aa0       0x10 object_files/kernel/storage/devicemanager.o
                0x00118aa0                singleSectorRead
 .text          0x00118ab0        0x0 object_files/kernel/storage/flpydsk.o
 .text.flpydsk_checkInt
                0x00118ab0       0xc4 object_files/kernel/storage/flpydsk.o
 *fill*         0x00118b74        0xc 
 .text.createFloppy
                0x00118b80      0x393 object_files/kernel/storage/flpydsk.o
 *fill*         0x00118f13        0xd 
 .text.flpydsk_install
                0x00118f20      0x18b object_files/kernel/storage/flpydsk.o
                0x00118f20                flpydsk_install
 *fill*         0x001190ab        0x5 
 .text.flpydsk_motorOn
                0x001190b0       0x5d object_files/kernel/storage/flpydsk.o
                0x001190b0                flpydsk_motorOn
 *fill*         0x0011910d        0x3 
 .text.flpydsk_seek
                0x00119110      0x1ff object_files/kernel/storage/flpydsk.o
 *fill*         0x0011930f        0x1 
 .text.flpydsk_transferSector
                0x00119310      0x31a object_files/kernel/storage/flpydsk.o
 *fill*         0x0011962a        0x6 
 .text.flpydsk_motorOff
                0x00119630       0x5d object_files/kernel/storage/flpydsk.o
                0x00119630                flpydsk_motorOff
 *fill*         0x0011968d        0x3 
 .text.flpydsk_readSectors
                0x00119690      0x237 object_files/kernel/storage/flpydsk.o
                0x00119690                flpydsk_readSectors
 *fill*         0x001198c7        0x9 
 .text.flpydsk_writeSectors
                0x001198d0      0x1ae object_files/kernel/storage/flpydsk.o
                0x001198d0                flpydsk_writeSectors
 *fill*         0x00119a7e        0x2 
 .text.flpydsk_refreshVolumeName
                0x00119a80       0x77 object_files/kernel/storage/flpydsk.o
                0x00119a80                flpydsk_refreshVolumeName
 .text          0x00119af7        0x0 object_files/kernel/tasking/synchronisation.o
 *fill*         0x00119af7        0x9 
 .text.semaphore_create
                0x00119b00       0x24 object_files/kernel/tasking/synchronisation.o
                0x00119b00                semaphore_create
 *fill*         0x00119b24        0xc 
 .text.semaphore_construct
                0x00119b30       0x12 object_files/kernel/tasking/synchronisation.o
                0x00119b30                semaphore_construct
 *fill*         0x00119b42        0xe 
 .text.semaphore_lock
                0x00119b50       0x45 object_files/kernel/tasking/synchronisation.o
                0x00119b50                semaphore_lock
 *fill*         0x00119b95        0xb 
 .text.semaphore_unlock
                0x00119ba0       0x37 object_files/kernel/tasking/synchronisation.o
                0x00119ba0                semaphore_unlock
 *fill*         0x00119bd7        0x9 
 .text.semaphore_destruct
                0x00119be0       0x2a object_files/kernel/tasking/synchronisation.o
                0x00119be0                semaphore_destruct
 *fill*         0x00119c0a        0x6 
 .text.semaphore_free
                0x00119c10       0x2b object_files/kernel/tasking/synchronisation.o
                0x00119c10                semaphore_free
 *fill*         0x00119c3b        0x5 
 .text.mutex_create
                0x00119c40       0x23 object_files/kernel/tasking/synchronisation.o
                0x00119c40                mutex_create
 *fill*         0x00119c63        0xd 
 .text.mutex_construct
                0x00119c70       0x15 object_files/kernel/tasking/synchronisation.o
                0x00119c70                mutex_construct
 *fill*         0x00119c85        0xb 
 .text.mutex_lock
                0x00119c90       0x94 object_files/kernel/tasking/synchronisation.o
                0x00119c90                mutex_lock
 *fill*         0x00119d24        0xc 
 .text.mutex_unlock
                0x00119d30       0x5f object_files/kernel/tasking/synchronisation.o
                0x00119d30                mutex_unlock
 *fill*         0x00119d8f        0x1 
 .text.mutex_destruct
                0x00119d90       0x30 object_files/kernel/tasking/synchronisation.o
                0x00119d90                mutex_destruct
 .text.mutex_free
                0x00119dc0       0x2b object_files/kernel/tasking/synchronisation.o
                0x00119dc0                mutex_free
 .text          0x00119deb        0x0 object_files/kernel/tasking/task.o
 *fill*         0x00119deb        0x5 
 .text.tasking_install
                0x00119df0       0x59 object_files/kernel/tasking/task.o
                0x00119df0                tasking_install
 *fill*         0x00119e49        0x7 
 .text.getpid   0x00119e50        0xd object_files/kernel/tasking/task.o
                0x00119e50                getpid
 *fill*         0x00119e5d        0x3 
 .text.waitForTask
                0x00119e60       0x41 object_files/kernel/tasking/task.o
                0x00119e60                waitForTask
 *fill*         0x00119ea1        0xf 
 .text.create_task
                0x00119eb0      0x2df object_files/kernel/tasking/task.o
                0x00119eb0                create_task
 *fill*         0x0011a18f        0x1 
 .text.create_cprocess
                0x0011a190       0x5b object_files/kernel/tasking/task.o
                0x0011a190                create_cprocess
 *fill*         0x0011a1eb        0x5 
 .text.create_process
                0x0011a1f0       0x3e object_files/kernel/tasking/task.o
                0x0011a1f0                create_process
 *fill*         0x0011a22e        0x2 
 .text.create_cthread
                0x0011a230       0x92 object_files/kernel/tasking/task.o
                0x0011a230                create_cthread
 *fill*         0x0011a2c2        0xe 
 .text.create_thread
                0x0011a2d0       0x62 object_files/kernel/tasking/task.o
                0x0011a2d0                create_thread
 *fill*         0x0011a332        0xe 
 .text.create_vm86_task
                0x0011a340       0x26 object_files/kernel/tasking/task.o
                0x0011a340                create_vm86_task
 *fill*         0x0011a366        0xa 
 .text.task_passStackParameter
                0x0011a370       0x5d object_files/kernel/tasking/task.o
                0x0011a370                task_passStackParameter
 *fill*         0x0011a3cd        0x3 
 .text.task_saveState
                0x0011a3d0       0x10 object_files/kernel/tasking/task.o
                0x0011a3d0                task_saveState
 .text.task_switch
                0x0011a3e0       0x73 object_files/kernel/tasking/task.o
                0x0011a3e0                task_switch
 *fill*         0x0011a453        0xd 
 .text.switch_context
                0x0011a460       0x1d object_files/kernel/tasking/task.o
                0x0011a460                switch_context
 *fill*         0x0011a47d        0x3 
 .text.kill     0x0011a480      0x1a2 object_files/kernel/tasking/task.o
                0x0011a480                kill
 *fill*         0x0011a622        0xe 
 .text.exit     0x0011a630       0x16 object_files/kernel/tasking/task.o
                0x0011a630                exit
 *fill*         0x0011a646        0xa 
 .text.task_kill
                0x0011a650       0x39 object_files/kernel/tasking/task.o
                0x0011a650                task_kill
 *fill*         0x0011a689        0x7 
 .text.task_log
                0x0011a690      0x1cf object_files/kernel/tasking/task.o
                0x0011a690                task_log
 .text          0x0011a85f        0x0 object_files/kernel/tasking/scheduler.o
 *fill*         0x0011a85f        0x1 
 .text.doNothing
                0x0011a860       0x13 object_files/kernel/tasking/scheduler.o
 *fill*         0x0011a873        0xd 
 .text.scheduler_unblockEvent
                0x0011a880       0xeb object_files/kernel/tasking/scheduler.o
                0x0011a880                scheduler_unblockEvent
 *fill*         0x0011a96b        0x5 
 .text.scheduler_shouldSwitchTask
                0x0011a970       0x40 object_files/kernel/tasking/scheduler.o
                0x0011a970                scheduler_shouldSwitchTask
 .text.scheduler_taskSwitch
                0x0011a9b0      0x14c object_files/kernel/tasking/scheduler.o
                0x0011a9b0                scheduler_taskSwitch
 *fill*         0x0011aafc        0x4 
 .text.scheduler_insertTask
                0x0011ab00       0x1a object_files/kernel/tasking/scheduler.o
                0x0011ab00                scheduler_insertTask
 *fill*         0x0011ab1a        0x6 
 .text.scheduler_deleteTask
                0x0011ab20       0x42 object_files/kernel/tasking/scheduler.o
                0x0011ab20                scheduler_deleteTask
 *fill*         0x0011ab62        0xe 
 .text.scheduler_blockCurrentTask
                0x0011ab70       0xbd object_files/kernel/tasking/scheduler.o
                0x0011ab70                scheduler_blockCurrentTask
 *fill*         0x0011ac2d        0x3 
 .text.scheduler_log
                0x0011ac30      0x177 object_files/kernel/tasking/scheduler.o
                0x0011ac30                scheduler_log
 .text          0x0011ada7        0x0 object_files/kernel/tasking/vm86.o
 *fill*         0x0011ada7        0x9 
 .text.vm86_sensitiveOpcodehandler
                0x0011adb0      0x81e object_files/kernel/tasking/vm86.o
                0x0011adb0                vm86_sensitiveOpcodehandler
 *fill*         0x0011b5ce        0x2 
 .text.vm86_initPageDirectory
                0x0011b5d0      0x135 object_files/kernel/tasking/vm86.o
                0x0011b5d0                vm86_initPageDirectory
 *fill*         0x0011b705        0xb 
 .text.vm86_executeSync
                0x0011b710       0x35 object_files/kernel/tasking/vm86.o
                0x0011b710                vm86_executeSync
 .text          0x0011b745        0x0 object_files/kernel/usb/usb_hc.o
 *fill*         0x0011b745        0xb 
 .text.hc_constructPort
                0x0011b750       0xcb object_files/kernel/usb/usb_hc.o
 *fill*         0x0011b81b        0x5 
 .text.usb_hc_install
                0x0011b820       0x56 object_files/kernel/usb/usb_hc.o
                0x0011b820                usb_hc_install
 *fill*         0x0011b876        0xa 
 .text.usb_constructTransfer
                0x0011b880       0xbc object_files/kernel/usb/usb_hc.o
                0x0011b880                usb_constructTransfer
 *fill*         0x0011b93c        0x4 
 .text.usb_setupTransaction
                0x0011b940      0x1a6 object_files/kernel/usb/usb_hc.o
                0x0011b940                usb_setupTransaction
 *fill*         0x0011bae6        0xa 
 .text.usb_inTransaction
                0x0011baf0      0x1d0 object_files/kernel/usb/usb_hc.o
                0x0011baf0                usb_inTransaction
 .text.usb_outTransaction
                0x0011bcc0      0x190 object_files/kernel/usb/usb_hc.o
                0x0011bcc0                usb_outTransaction
 .text.usb_scheduleTransfer
                0x0011be50       0x89 object_files/kernel/usb/usb_hc.o
                0x0011be50                usb_scheduleTransfer
 *fill*         0x0011bed9        0x7 
 .text.usb_pollTransfer
                0x0011bee0       0x89 object_files/kernel/usb/usb_hc.o
                0x0011bee0                usb_pollTransfer
 *fill*         0x0011bf69        0x7 
 .text.usb_waitForTransfer
                0x0011bf70       0x89 object_files/kernel/usb/usb_hc.o
                0x0011bf70                usb_waitForTransfer
 *fill*         0x0011bff9        0x7 
 .text.usb_destructTransfer
                0x0011c000       0xf1 object_files/kernel/usb/usb_hc.o
                0x0011c000                usb_destructTransfer
 *fill*         0x0011c0f1        0xf 
 .text.hc_setupUSBDevice
                0x0011c100       0x8b object_files/kernel/usb/usb_hc.o
                0x0011c100                hc_setupUSBDevice
 *fill*         0x0011c18b        0x5 
 .text.hc_updateEndpointInformation
                0x0011c190       0x16 object_files/kernel/usb/usb_hc.o
                0x0011c190                hc_updateEndpointInformation
 *fill*         0x0011c1a6        0xa 
 .text.hc_constructRootPorts
                0x0011c1b0       0x8b object_files/kernel/usb/usb_hc.o
                0x0011c1b0                hc_constructRootPorts
 *fill*         0x0011c23b        0x5 
 .text.hc_addPort
                0x0011c240       0xc9 object_files/kernel/usb/usb_hc.o
                0x0011c240                hc_addPort
 *fill*         0x0011c309        0x7 
 .text.hc_getPort
                0x0011c310       0x24 object_files/kernel/usb/usb_hc.o
                0x0011c310                hc_getPort
 *fill*         0x0011c334        0xc 
 .text.hc_destroyPort
                0x0011c340       0x53 object_files/kernel/usb/usb_hc.o
                0x0011c340                hc_destroyPort
 .text          0x0011c393        0x0 object_files/kernel/usb/ehci.o
 *fill*         0x0011c393        0xd 
 .text.ehci_handler
                0x0011c3a0      0x185 object_files/kernel/usb/ehci.o
 *fill*         0x0011c525        0xb 
 .text.ehci_showUSBSTS.isra.1
                0x0011c530       0xe0 object_files/kernel/usb/ehci.o
 .text.ehci_checkPortLineStatus
                0x0011c610      0x1ea object_files/kernel/usb/ehci.o
 *fill*         0x0011c7fa        0x6 
 .text.ehci_portCheck
                0x0011c800       0xe5 object_files/kernel/usb/ehci.o
 *fill*         0x0011c8e5        0xb 
 .text.ehci_start
                0x0011c8f0      0x378 object_files/kernel/usb/ehci.o
 *fill*         0x0011cc68        0x8 
 .text.ehci_install
                0x0011cc70       0xf9 object_files/kernel/usb/ehci.o
                0x0011cc70                ehci_install
 *fill*         0x0011cd69        0x7 
 .text.ehci_setupTransfer
                0x0011cd70       0xd1 object_files/kernel/usb/ehci.o
                0x0011cd70                ehci_setupTransfer
 *fill*         0x0011ce41        0xf 
 .text.ehci_setupTransaction
                0x0011ce50       0xa4 object_files/kernel/usb/ehci.o
                0x0011ce50                ehci_setupTransaction
 *fill*         0x0011cef4        0xc 
 .text.ehci_inTransaction
                0x0011cf00       0xd9 object_files/kernel/usb/ehci.o
                0x0011cf00                ehci_inTransaction
 *fill*         0x0011cfd9        0x7 
 .text.ehci_outTransaction
                0x0011cfe0      0x106 object_files/kernel/usb/ehci.o
                0x0011cfe0                ehci_outTransaction
 *fill*         0x0011d0e6        0xa 
 .text.ehci_scheduleTransfer
                0x0011d0f0       0xf7 object_files/kernel/usb/ehci.o
                0x0011d0f0                ehci_scheduleTransfer
 *fill*         0x0011d1e7        0x9 
 .text.ehci_pollTransfer
                0x0011d1f0        0x7 object_files/kernel/usb/ehci.o
                0x0011d1f0                ehci_pollTransfer
 *fill*         0x0011d1f7        0x9 
 .text.ehci_waitForTransfer
                0x0011d200      0x2fc object_files/kernel/usb/ehci.o
                0x0011d200                ehci_waitForTransfer
 *fill*         0x0011d4fc        0x4 
 .text.ehci_destructTransfer
                0x0011d500      0x115 object_files/kernel/usb/ehci.o
                0x0011d500                ehci_destructTransfer
 .text          0x0011d615        0x0 object_files/kernel/usb/usb_hub.o
 *fill*         0x0011d615        0xb 
 .text.usb_destroyHub
                0x0011d620       0x8f object_files/kernel/usb/usb_hub.o
                0x0011d620                usb_destroyHub
 *fill*         0x0011d6af        0x1 
 .text.usb_clearHubFeature
                0x0011d6b0       0x3c object_files/kernel/usb/usb_hub.o
                0x0011d6b0                usb_clearHubFeature
 *fill*         0x0011d6ec        0x4 
 .text.usb_clearPortFeature
                0x0011d6f0       0x3f object_files/kernel/usb/usb_hub.o
                0x0011d6f0                usb_clearPortFeature
 *fill*         0x0011d72f        0x1 
 .text.usb_clearTTBuffer
                0x0011d730       0x40 object_files/kernel/usb/usb_hub.o
                0x0011d730                usb_clearTTBuffer
 .text.usb_getHubStatus
                0x0011d770       0x46 object_files/kernel/usb/usb_hub.o
                0x0011d770                usb_getHubStatus
 *fill*         0x0011d7b6        0xa 
 .text.usb_getPortStatus
                0x0011d7c0       0x44 object_files/kernel/usb/usb_hub.o
                0x0011d7c0                usb_getPortStatus
 *fill*         0x0011d804        0xc 
 .text.usb_isHubPortConnected
                0x0011d810       0x59 object_files/kernel/usb/usb_hub.o
                0x0011d810                usb_isHubPortConnected
 *fill*         0x0011d869        0x7 
 .text.usb_getTTState
                0x0011d870       0x4f object_files/kernel/usb/usb_hub.o
                0x0011d870                usb_getTTState
 *fill*         0x0011d8bf        0x1 
 .text.usb_resetTT
                0x0011d8c0       0x3c object_files/kernel/usb/usb_hub.o
                0x0011d8c0                usb_resetTT
 *fill*         0x0011d8fc        0x4 
 .text.usb_setHubDescriptor
                0x0011d900       0x41 object_files/kernel/usb/usb_hub.o
                0x0011d900                usb_setHubDescriptor
 *fill*         0x0011d941        0xf 
 .text.usb_setHubFeature
                0x0011d950       0x3c object_files/kernel/usb/usb_hub.o
                0x0011d950                usb_setHubFeature
 *fill*         0x0011d98c        0x4 
 .text.usb_setPortFeature
                0x0011d990       0x51 object_files/kernel/usb/usb_hub.o
                0x0011d990                usb_setPortFeature
 *fill*         0x0011d9e1        0xf 
 .text.usb_setupHub
                0x0011d9f0      0x1f0 object_files/kernel/usb/usb_hub.o
                0x0011d9f0                usb_setupHub
 .text.usb_stopTT
                0x0011dbe0       0x3c object_files/kernel/usb/usb_hub.o
                0x0011dbe0                usb_stopTT
 *fill*         0x0011dc1c        0x4 
 .text.usb_hubWatchdog
                0x0011dc20      0x1d0 object_files/kernel/usb/usb_hub.o
                0x0011dc20                usb_hubWatchdog
 .text          0x0011ddf0        0x0 object_files/kernel/usb/ohci.o
 .text.ohci_analyzePortStatus
                0x0011ddf0      0x159 object_files/kernel/usb/ohci.o
 *fill*         0x0011df49        0x7 
 .text.ohci_handler
                0x0011df50      0x1b5 object_files/kernel/usb/ohci.o
 *fill*         0x0011e105        0xb 
 .text.ohci_attachSequence
                0x0011e110      0x1d8 object_files/kernel/usb/ohci.o
 *fill*         0x0011e2e8        0x8 
 .text.ohci_start
                0x0011e2f0      0x6a2 object_files/kernel/usb/ohci.o
 *fill*         0x0011e992        0xe 
 .text.ohci_appendTDtoED.isra.3
                0x0011e9a0       0x50 object_files/kernel/usb/ohci.o
 .text.ohci_createTD_IO.constprop.5
                0x0011e9f0       0xd7 object_files/kernel/usb/ohci.o
 *fill*         0x0011eac7        0x9 
 .text.ohci_install
                0x0011ead0       0xcc object_files/kernel/usb/ohci.o
                0x0011ead0                ohci_install
 *fill*         0x0011eb9c        0x4 
 .text.ohci_setupTransfer
                0x0011eba0       0x7c object_files/kernel/usb/ohci.o
                0x0011eba0                ohci_setupTransfer
 *fill*         0x0011ec1c        0x4 
 .text.ohci_setupTransaction
                0x0011ec20      0x152 object_files/kernel/usb/ohci.o
                0x0011ec20                ohci_setupTransaction
 *fill*         0x0011ed72        0xe 
 .text.ohci_inTransaction
                0x0011ed80      0x1d5 object_files/kernel/usb/ohci.o
                0x0011ed80                ohci_inTransaction
 *fill*         0x0011ef55        0xb 
 .text.ohci_outTransaction
                0x0011ef60      0x208 object_files/kernel/usb/ohci.o
                0x0011ef60                ohci_outTransaction
 *fill*         0x0011f168        0x8 
 .text.ohci_scheduleTransfer
                0x0011f170      0x2d8 object_files/kernel/usb/ohci.o
                0x0011f170                ohci_scheduleTransfer
 *fill*         0x0011f448        0x8 
 .text.ohci_pollTransfer
                0x0011f450      0x21a object_files/kernel/usb/ohci.o
                0x0011f450                ohci_pollTransfer
 *fill*         0x0011f66a        0x6 
 .text.ohci_waitForTransfer
                0x0011f670      0x1af object_files/kernel/usb/ohci.o
                0x0011f670                ohci_waitForTransfer
 *fill*         0x0011f81f        0x1 
 .text.ohci_destructTransfer
                0x0011f820      0x173 object_files/kernel/usb/ohci.o
                0x0011f820                ohci_destructTransfer
 .text          0x0011f993        0x0 object_files/kernel/usb/uhci.o
 *fill*         0x0011f993        0xd 
 .text.uhci_showStatusbyteTD
                0x0011f9a0       0xed object_files/kernel/usb/uhci.o
 *fill*         0x0011fa8d        0x3 
 .text.uhci_handler
                0x0011fa90      0x18e object_files/kernel/usb/uhci.o
 *fill*         0x0011fc1e        0x2 
 .text.uhci_resetPort
                0x0011fc20       0xca object_files/kernel/usb/uhci.o
 *fill*         0x0011fcea        0x6 
 .text.uhci_analysePortStatus
                0x0011fcf0       0xec object_files/kernel/usb/uhci.o
 *fill*         0x0011fddc        0x4 
 .text.uhci_start
                0x0011fde0      0x49b object_files/kernel/usb/uhci.o
 *fill*         0x0012027b        0x5 
 .text.uhci_allocTD.isra.1.constprop.4
                0x00120280       0x64 object_files/kernel/usb/uhci.o
 *fill*         0x001202e4        0xc 
 .text.uhci_createTD_IO.constprop.2
                0x001202f0      0x14a object_files/kernel/usb/uhci.o
 *fill*         0x0012043a        0x6 
 .text.uhci_install
                0x00120440       0xc5 object_files/kernel/usb/uhci.o
                0x00120440                uhci_install
 *fill*         0x00120505        0xb 
 .text.uhci_pollDisk
                0x00120510       0x7e object_files/kernel/usb/uhci.o
                0x00120510                uhci_pollDisk
 *fill*         0x0012058e        0x2 
 .text.uhci_setupTransfer
                0x00120590       0x4f object_files/kernel/usb/uhci.o
                0x00120590                uhci_setupTransfer
 *fill*         0x001205df        0x1 
 .text.uhci_setupTransaction
                0x001205e0      0x10b object_files/kernel/usb/uhci.o
                0x001205e0                uhci_setupTransaction
 *fill*         0x001206eb        0x5 
 .text.uhci_inTransaction
                0x001206f0       0x8b object_files/kernel/usb/uhci.o
                0x001206f0                uhci_inTransaction
 *fill*         0x0012077b        0x5 
 .text.uhci_outTransaction
                0x00120780       0xbb object_files/kernel/usb/uhci.o
                0x00120780                uhci_outTransaction
 *fill*         0x0012083b        0x5 
 .text.uhci_scheduleTransfer
                0x00120840       0xee object_files/kernel/usb/uhci.o
                0x00120840                uhci_scheduleTransfer
 *fill*         0x0012092e        0x2 
 .text.uhci_pollTransfer
                0x00120930      0x13f object_files/kernel/usb/uhci.o
                0x00120930                uhci_pollTransfer
 *fill*         0x00120a6f        0x1 
 .text.uhci_waitForTransfer
                0x00120a70       0xf4 object_files/kernel/usb/uhci.o
                0x00120a70                uhci_waitForTransfer
 *fill*         0x00120b64        0xc 
 .text.uhci_destructTransfer
                0x00120b70       0x38 object_files/kernel/usb/uhci.o
                0x00120b70                uhci_destructTransfer
 .text          0x00120ba8        0x0 object_files/kernel/usb/xhci.o
 *fill*         0x00120ba8        0x8 
 .text.xhci_showStates
                0x00120bb0       0xbd object_files/kernel/usb/xhci.o
 *fill*         0x00120c6d        0x3 
 .text.xhci_resetSlot
                0x00120c70      0x181 object_files/kernel/usb/xhci.o
 *fill*         0x00120df1        0xf 
 .text.xhci_ringDoorbellAndWait_HC
                0x00120e00       0xc1 object_files/kernel/usb/xhci.o
 *fill*         0x00120ec1        0xf 
 .text.showCounter
                0x00120ed0       0x66 object_files/kernel/usb/xhci.o
 *fill*         0x00120f36        0xa 
 .text.xhci_enqueueCommand
                0x00120f40       0xdc object_files/kernel/usb/xhci.o
 *fill*         0x0012101c        0x4 
 .text.xhci_Enable_Slot_Command
                0x00121020       0x9f object_files/kernel/usb/xhci.o
 *fill*         0x001210bf        0x1 
 .text.xhci_Address_Device_Command
                0x001210c0       0xd8 object_files/kernel/usb/xhci.o
 *fill*         0x00121198        0x8 
 .text.xhci_detectDevice
                0x001211a0      0x3d7 object_files/kernel/usb/xhci.o
 *fill*         0x00121577        0x9 
 .text.xhci_portCheck
                0x00121580      0x2c0 object_files/kernel/usb/xhci.o
 .text.xhci_enqueueTransfer
                0x00121840      0x109 object_files/kernel/usb/xhci.o
 *fill*         0x00121949        0x7 
 .text.xhci_showStatus.isra.6
                0x00121950      0x212 object_files/kernel/usb/xhci.o
 *fill*         0x00121b62        0xe 
 .text.xhci_start
                0x00121b70      0x7c7 object_files/kernel/usb/xhci.o
 *fill*         0x00122337        0x9 
 .text.xhci_handler
                0x00122340      0x5ec object_files/kernel/usb/xhci.o
 *fill*         0x0012292c        0x4 
 .text.xhci_install
                0x00122930      0x10b object_files/kernel/usb/xhci.o
                0x00122930                xhci_install
 *fill*         0x00122a3b        0x5 
 .text.xhci_updateEndpointInformation
                0x00122a40      0x3c2 object_files/kernel/usb/xhci.o
                0x00122a40                xhci_updateEndpointInformation
 *fill*         0x00122e02        0xe 
 .text.xhci_setupTransfer
                0x00122e10        0xf object_files/kernel/usb/xhci.o
                0x00122e10                xhci_setupTransfer
 *fill*         0x00122e1f        0x1 
 .text.xhci_setupTransaction
                0x00122e20      0x303 object_files/kernel/usb/xhci.o
                0x00122e20                xhci_setupTransaction
 *fill*         0x00123123        0xd 
 .text.xhci_inTransaction
                0x00123130      0x1a9 object_files/kernel/usb/xhci.o
                0x00123130                xhci_inTransaction
 *fill*         0x001232d9        0x7 
 .text.xhci_outTransaction
                0x001232e0      0x1b9 object_files/kernel/usb/xhci.o
                0x001232e0                xhci_outTransaction
 *fill*         0x00123499        0x7 
 .text.xhci_scheduleTransfer
                0x001234a0      0x151 object_files/kernel/usb/xhci.o
                0x001234a0                xhci_scheduleTransfer
 *fill*         0x001235f1        0xf 
 .text.xhci_pollTransfer
                0x00123600        0x7 object_files/kernel/usb/xhci.o
                0x00123600                xhci_pollTransfer
 *fill*         0x00123607        0x9 
 .text.xhci_waitForTransfer
                0x00123610      0x1c5 object_files/kernel/usb/xhci.o
                0x00123610                xhci_waitForTransfer
 *fill*         0x001237d5        0xb 
 .text.xhci_destructTransfer
                0x001237e0       0xc3 object_files/kernel/usb/xhci.o
                0x001237e0                xhci_destructTransfer
 *fill*         0x001238a3        0xd 
 .text.xhci_pollDisk
                0x001238b0       0x7a object_files/kernel/usb/xhci.o
                0x001238b0                xhci_pollDisk
 .text          0x0012392a        0x0 object_files/kernel/usb/ehciQHqTD.o
 *fill*         0x0012392a        0x6 
 .text.allocQTD
                0x00123930       0x70 object_files/kernel/usb/ehciQHqTD.o
 .text.allocQTDbuffer
                0x001239a0       0xb3 object_files/kernel/usb/ehciQHqTD.o
 *fill*         0x00123a53        0xd 
 .text.enableAsyncScheduler.isra.0
                0x00123a60       0x52 object_files/kernel/usb/ehciQHqTD.o
 *fill*         0x00123ab2        0xe 
 .text.ehci_createQH
                0x00123ac0       0x9f object_files/kernel/usb/ehciQHqTD.o
                0x00123ac0                ehci_createQH
 *fill*         0x00123b5f        0x1 
 .text.ehci_createQTD_SETUP
                0x00123b60       0x8e object_files/kernel/usb/ehciQHqTD.o
                0x00123b60                ehci_createQTD_SETUP
 *fill*         0x00123bee        0x2 
 .text.ehci_createQTD_IO
                0x00123bf0       0x59 object_files/kernel/usb/ehciQHqTD.o
                0x00123bf0                ehci_createQTD_IO
 *fill*         0x00123c49        0x7 
 .text.ehci_showStatusbyteQTD
                0x00123c50      0x199 object_files/kernel/usb/ehciQHqTD.o
                0x00123c50                ehci_showStatusbyteQTD
 *fill*         0x00123de9        0x7 
 .text.ehci_getNakCounter
                0x00123df0       0x10 object_files/kernel/usb/ehciQHqTD.o
                0x00123df0                ehci_getNakCounter
 .text.ehci_initializeAsyncScheduler
                0x00123e00       0x8f object_files/kernel/usb/ehciQHqTD.o
                0x00123e00                ehci_initializeAsyncScheduler
 *fill*         0x00123e8f        0x1 
 .text.ehci_addToAsyncScheduler
                0x00123e90      0x12f object_files/kernel/usb/ehciQHqTD.o
                0x00123e90                ehci_addToAsyncScheduler
 *fill*         0x00123fbf        0x1 
 .text.ehci_initializePeriodicList
                0x00123fc0       0x55 object_files/kernel/usb/ehciQHqTD.o
                0x00123fc0                ehci_initializePeriodicList
 *fill*         0x00124015        0xb 
 .text.ehci_addToPeriodicScheduler
                0x00124020      0x3ff object_files/kernel/usb/ehciQHqTD.o
                0x00124020                ehci_addToPeriodicScheduler
 *fill*         0x0012441f        0x1 
 .text.ehci_createiTD
                0x00124420       0xf7 object_files/kernel/usb/ehciQHqTD.o
                0x00124420                ehci_createiTD
 *fill*         0x00124517        0x9 
 .text.ehci_createiTDchain
                0x00124520      0x177 object_files/kernel/usb/ehciQHqTD.o
                0x00124520                ehci_createiTDchain
 *fill*         0x00124697        0x9 
 .text.ehci_show_iTD
                0x001246a0       0xf3 object_files/kernel/usb/ehciQHqTD.o
                0x001246a0                ehci_show_iTD
 .text          0x00124793        0x0 object_files/kernel/usb/usb.o
 *fill*         0x00124793        0xd 
 .text.usb_createDevice
                0x001247a0       0xbb object_files/kernel/usb/usb.o
                0x001247a0                usb_createDevice
 *fill*         0x0012485b        0x5 
 .text.usb_destroyDevice
                0x00124860       0xe1 object_files/kernel/usb/usb.o
                0x00124860                usb_destroyDevice
 *fill*         0x00124941        0xf 
 .text.usb_controlIn
                0x00124950       0xa0 object_files/kernel/usb/usb.o
                0x00124950                usb_controlIn
 .text.usb_controlOut
                0x001249f0       0xa0 object_files/kernel/usb/usb.o
                0x001249f0                usb_controlOut
 .text.usb_controlSet
                0x00124a90       0x8c object_files/kernel/usb/usb.o
                0x00124a90                usb_controlSet
 *fill*         0x00124b1c        0x4 
 .text.usb_setDeviceAddress
                0x00124b20       0x6a object_files/kernel/usb/usb.o
                0x00124b20                usb_setDeviceAddress
 *fill*         0x00124b8a        0x6 
 .text.usb_getDeviceDescriptor
                0x00124b90      0x215 object_files/kernel/usb/usb.o
                0x00124b90                usb_getDeviceDescriptor
 *fill*         0x00124da5        0xb 
 .text.usb_getConfigDescriptor
                0x00124db0      0x1d6 object_files/kernel/usb/usb.o
                0x00124db0                usb_getConfigDescriptor
 *fill*         0x00124f86        0xa 
 .text.usb_setupDevice
                0x00124f90      0x241 object_files/kernel/usb/usb.o
                0x00124f90                usb_setupDevice
 *fill*         0x001251d1        0xf 
 .text.usb_getStringDescriptor
                0x001251e0      0x220 object_files/kernel/usb/usb.o
                0x001251e0                usb_getStringDescriptor
 .text.usb_getUnicodeStringDescriptor
                0x00125400      0x118 object_files/kernel/usb/usb.o
                0x00125400                usb_getUnicodeStringDescriptor
 *fill*         0x00125518        0x8 
 .text.usb_setConfiguration
                0x00125520       0x20 object_files/kernel/usb/usb.o
                0x00125520                usb_setConfiguration
 .text.usb_getConfiguration
                0x00125540       0x27 object_files/kernel/usb/usb.o
                0x00125540                usb_getConfiguration
 *fill*         0x00125567        0x9 
 .text.usb_setInterface
                0x00125570       0x23 object_files/kernel/usb/usb.o
                0x00125570                usb_setInterface
 *fill*         0x00125593        0xd 
 .text.usb_getInterface
                0x001255a0       0x2a object_files/kernel/usb/usb.o
                0x001255a0                usb_getInterface
 *fill*         0x001255ca        0x6 
 .text.usb_setFeatureHALT
                0x001255d0       0x23 object_files/kernel/usb/usb.o
                0x001255d0                usb_setFeatureHALT
 *fill*         0x001255f3        0xd 
 .text.usb_clearFeatureHALT
                0x00125600       0x23 object_files/kernel/usb/usb.o
                0x00125600                usb_clearFeatureHALT
 *fill*         0x00125623        0xd 
 .text.usb_getStatus
                0x00125630       0x24 object_files/kernel/usb/usb.o
                0x00125630                usb_getStatus
 *fill*         0x00125654        0xc 
 .text.usb_startInterruptInTransfer
                0x00125660       0x70 object_files/kernel/usb/usb.o
                0x00125660                usb_startInterruptInTransfer
 .text.usb_pollInterruptTransfers
                0x001256d0       0x43 object_files/kernel/usb/usb.o
                0x001256d0                usb_pollInterruptTransfers
 *fill*         0x00125713        0xd 
 .text.usb_IsochronousInTransfer
                0x00125720       0x5d object_files/kernel/usb/usb.o
                0x00125720                usb_IsochronousInTransfer
 .text          0x0012577d        0x0 object_files/kernel/util/array.o
 *fill*         0x0012577d        0x3 
 .text.array_create
                0x00125780       0x2a object_files/kernel/util/array.o
                0x00125780                array_create
 *fill*         0x001257aa        0x6 
 .text.array_construct
                0x001257b0       0x1c object_files/kernel/util/array.o
                0x001257b0                array_construct
 *fill*         0x001257cc        0x4 
 .text.array_destruct
                0x001257d0       0x2d object_files/kernel/util/array.o
                0x001257d0                array_destruct
 *fill*         0x001257fd        0x3 
 .text.array_free
                0x00125800       0x20 object_files/kernel/util/array.o
                0x00125800                array_free
 .text.array_resize_
                0x00125820       0x72 object_files/kernel/util/array.o
                0x00125820                array_resize_
 .text          0x00125892        0x0 object_files/kernel/util/util.o
 *fill*         0x00125892        0xe 
 .text.memshow  0x001258a0       0x7f object_files/kernel/util/util.o
                0x001258a0                memshow
 *fill*         0x0012591f        0x1 
 .text.memcpy   0x00125920       0x23 object_files/kernel/util/util.o
                0x00125920                memcpy
 *fill*         0x00125943        0xd 
 .text.memmove  0x00125950       0x6f object_files/kernel/util/util.o
                0x00125950                memmove
 *fill*         0x001259bf        0x1 
 .text.memset   0x001259c0       0x3f object_files/kernel/util/util.o
                0x001259c0                memset
 *fill*         0x001259ff        0x1 
 .text.memsetw  0x00125a00       0x2d object_files/kernel/util/util.o
                0x00125a00                memsetw
 *fill*         0x00125a2d        0x3 
 .text.memsetl  0x00125a30       0x17 object_files/kernel/util/util.o
                0x00125a30                memsetl
 *fill*         0x00125a47        0x9 
 .text.memcmp   0x00125a50       0x6c object_files/kernel/util/util.o
                0x00125a50                memcmp
 *fill*         0x00125abc        0x4 
 .text.gets_s   0x00125ac0       0xb7 object_files/kernel/util/util.o
                0x00125ac0                gets_s
 *fill*         0x00125b77        0x9 
 .text.waitForKeyStroke
                0x00125b80       0x2e object_files/kernel/util/util.o
                0x00125b80                waitForKeyStroke
 *fill*         0x00125bae        0x2 
 .text.strlen   0x00125bb0       0x1b object_files/kernel/util/util.o
                0x00125bb0                strlen
 *fill*         0x00125bcb        0x5 
 .text.strcmp   0x00125bd0       0x3f object_files/kernel/util/util.o
                0x00125bd0                strcmp
 *fill*         0x00125c0f        0x1 
 .text.strncmp  0x00125c10       0x6a object_files/kernel/util/util.o
                0x00125c10                strncmp
 *fill*         0x00125c7a        0x6 
 .text.strncicmp
                0x00125c80      0x101 object_files/kernel/util/util.o
                0x00125c80                strncicmp
 *fill*         0x00125d81        0xf 
 .text.strcpy   0x00125d90       0x24 object_files/kernel/util/util.o
                0x00125d90                strcpy
 *fill*         0x00125db4        0xc 
 .text.strncpyandfill
                0x00125dc0       0x95 object_files/kernel/util/util.o
                0x00125dc0                strncpyandfill
 *fill*         0x00125e55        0xb 
 .text.strcat   0x00125e60       0x54 object_files/kernel/util/util.o
                0x00125e60                strcat
 *fill*         0x00125eb4        0xc 
 .text.strncat  0x00125ec0       0xa4 object_files/kernel/util/util.o
                0x00125ec0                strncat
 *fill*         0x00125f64        0xc 
 .text.strchr   0x00125f70       0x45 object_files/kernel/util/util.o
                0x00125f70                strchr
 *fill*         0x00125fb5        0xb 
 .text.strpbrk  0x00125fc0       0x4f object_files/kernel/util/util.o
                0x00125fc0                strpbrk
 *fill*         0x0012600f        0x1 
 .text.strdup   0x00126010       0x70 object_files/kernel/util/util.o
                0x00126010                strdup
 .text.toupper  0x00126080       0x2a object_files/kernel/util/util.o
                0x00126080                toupper
 *fill*         0x001260aa        0x6 
 .text.tolower  0x001260b0       0x2a object_files/kernel/util/util.o
                0x001260b0                tolower
 *fill*         0x001260da        0x6 
 .text.reverse  0x001260e0       0x67 object_files/kernel/util/util.o
                0x001260e0                reverse
 *fill*         0x00126147        0x9 
 .text.ctoi     0x00126150       0x14 object_files/kernel/util/util.o
                0x00126150                ctoi
 *fill*         0x00126164        0xc 
 .text.utoa     0x00126170       0xa7 object_files/kernel/util/util.o
                0x00126170                utoa
 *fill*         0x00126217        0x9 
 .text.itoa     0x00126220       0x38 object_files/kernel/util/util.o
                0x00126220                itoa
 *fill*         0x00126258        0x8 
 .text.i2hex    0x00126260       0x49 object_files/kernel/util/util.o
                0x00126260                i2hex
 *fill*         0x001262a9        0x7 
 .text.atoi     0x001262b0       0x74 object_files/kernel/util/util.o
                0x001262b0                atoi
 *fill*         0x00126324        0xc 
 .text.atof     0x00126330      0x146 object_files/kernel/util/util.o
                0x00126330                atof
 *fill*         0x00126476        0xa 
 .text.ftoa     0x00126480      0x19b object_files/kernel/util/util.o
                0x00126480                ftoa
 *fill*         0x0012661b        0x5 
 .text.vsnprintf
                0x00126620      0x402 object_files/kernel/util/util.o
                0x00126620                vsnprintf
 *fill*         0x00126a22        0xe 
 .text.snprintf
                0x00126a30       0x17 object_files/kernel/util/util.o
                0x00126a30                snprintf
 *fill*         0x00126a47        0x9 
 .text.BCDtoDecimal
                0x00126a50       0x16 object_files/kernel/util/util.o
                0x00126a50                BCDtoDecimal
 *fill*         0x00126a66        0xa 
 .text.systemControl
                0x00126a70       0x7d object_files/kernel/util/util.o
                0x00126a70                systemControl
 *fill*         0x00126aed        0x3 
 .text.printStackTrace
                0x00126af0       0xb2 object_files/kernel/util/util.o
                0x00126af0                printStackTrace
 *fill*         0x00126ba2        0xe 
 .text.panic_assert
                0x00126bb0       0x3c object_files/kernel/util/util.o
                0x00126bb0                panic_assert
 *fill*         0x00126bec        0x4 
 .text.abs      0x00126bf0        0xd object_files/kernel/util/util.o
                0x00126bf0                abs
 *fill*         0x00126bfd        0x3 
 .text.fabs     0x00126c00        0xa object_files/kernel/util/util.o
                0x00126c00                fabs
 *fill*         0x00126c0a        0x6 
 .text.sqrt     0x00126c10       0x2a object_files/kernel/util/util.o
                0x00126c10                sqrt
 *fill*         0x00126c3a        0x6 
 .text.srand    0x00126c40        0xd object_files/kernel/util/util.o
                0x00126c40                srand
 *fill*         0x00126c4d        0x3 
 .text.rand     0x00126c50       0x21 object_files/kernel/util/util.o
                0x00126c50                rand
 .text          0x00126c71        0x0 object_files/kernel/util/todo_list.o
 *fill*         0x00126c71        0xf 
 .text.todolist_create
                0x00126c80       0x31 object_files/kernel/util/todo_list.o
                0x00126c80                todolist_create
 *fill*         0x00126cb1        0xf 
 .text.todoList_add
                0x00126cc0       0x9a object_files/kernel/util/todo_list.o
                0x00126cc0                todoList_add
 *fill*         0x00126d5a        0x6 
 .text.todoList_execute
                0x00126d60       0x74 object_files/kernel/util/todo_list.o
                0x00126d60                todoList_execute
 *fill*         0x00126dd4        0xc 
 .text.todoList_wait
                0x00126de0       0x17 object_files/kernel/util/todo_list.o
                0x00126de0                todoList_wait
 *fill*         0x00126df7        0x9 
 .text.todoList_unlockTask
                0x00126e00        0xf object_files/kernel/util/todo_list.o
                0x00126e00                todoList_unlockTask
 *fill*         0x00126e0f        0x1 
 .text.todolist_delete
                0x00126e10       0x2a object_files/kernel/util/todo_list.o
                0x00126e10                todolist_delete
 .text          0x00126e3a        0x0 object_files/kernel/util/list.o
 *fill*         0x00126e3a        0x6 
 .text.list_create
                0x00126e40       0x2a object_files/kernel/util/list.o
                0x00126e40                list_create
 *fill*         0x00126e6a        0x6 
 .text.list_construct
                0x00126e70       0x15 object_files/kernel/util/list.o
                0x00126e70                list_construct
 *fill*         0x00126e85        0xb 
 .text.list_alloc_elem
                0x00126e90       0x25 object_files/kernel/util/list.o
                0x00126e90                list_alloc_elem
 *fill*         0x00126eb5        0xb 
 .text.list_append
                0x00126ec0       0x54 object_files/kernel/util/list.o
                0x00126ec0                list_append
 *fill*         0x00126f14        0xc 
 .text.list_append_elem
                0x00126f20       0x37 object_files/kernel/util/list.o
                0x00126f20                list_append_elem
 *fill*         0x00126f57        0x9 
 .text.list_insert
                0x00126f60       0x79 object_files/kernel/util/list.o
                0x00126f60                list_insert
 *fill*         0x00126fd9        0x7 
 .text.list_delete
                0x00126fe0       0x9d object_files/kernel/util/list.o
                0x00126fe0                list_delete
 *fill*         0x0012707d        0x3 
 .text.list_destruct
                0x00127080       0x39 object_files/kernel/util/list.o
                0x00127080                list_destruct
 *fill*         0x001270b9        0x7 
 .text.list_free
                0x001270c0       0x40 object_files/kernel/util/list.o
                0x001270c0                list_free
 .text.list_getElement
                0x00127100       0x2e object_files/kernel/util/list.o
                0x00127100                list_getElement
 *fill*         0x0012712e        0x2 
 .text.list_find
                0x00127130       0x2d object_files/kernel/util/list.o
                0x00127130                list_find
 *fill*         0x0012715d        0x3 
 .text.list_getCount
                0x00127160       0x1c object_files/kernel/util/list.o
                0x00127160                list_getCount
 *fill*         0x0012717c        0x4 
 .text.list_isEmpty
                0x00127180        0xf object_files/kernel/util/list.o
                0x00127180                list_isEmpty
 *fill*         0x0012718f        0x1 
 .text.list_show
                0x00127190       0x3e object_files/kernel/util/list.o
                0x00127190                list_show
 .text          0x001271ce        0x0 object_files/kernel/util/ring.o
 *fill*         0x001271ce        0x2 
 .text.takeOut  0x001271d0       0x98 object_files/kernel/util/ring.o
 *fill*         0x00127268        0x8 
 .text.ring_construct
                0x00127270       0x15 object_files/kernel/util/ring.o
                0x00127270                ring_construct
 *fill*         0x00127285        0xb 
 .text.ring_insert
                0x00127290       0xd2 object_files/kernel/util/ring.o
                0x00127290                ring_insert
 *fill*         0x00127362        0xe 
 .text.ring_isEmpty
                0x00127370       0x43 object_files/kernel/util/ring.o
                0x00127370                ring_isEmpty
 *fill*         0x001273b3        0xd 
 .text.ring_deleteFirst
                0x001273c0       0x89 object_files/kernel/util/ring.o
                0x001273c0                ring_deleteFirst
 *fill*         0x00127449        0x7 
 .text.ring_move
                0x00127450       0xd0 object_files/kernel/util/ring.o
                0x00127450                ring_move
 .text          0x00127520        0x0 object_files/kernel/video/videomanager.o
 .text.video_setMode
                0x00127520       0x3e object_files/kernel/video/videomanager.o
                0x00127520                video_setMode
 *fill*         0x0012755e        0x2 
 .text.video_createModeList
                0x00127560       0x43 object_files/kernel/video/videomanager.o
                0x00127560                video_createModeList
 *fill*         0x001275a3        0xd 
 .text.video_freeModeList
                0x001275b0       0x32 object_files/kernel/video/videomanager.o
                0x001275b0                video_freeModeList
 *fill*         0x001275e2        0xe 
 .text.video_createDevice
                0x001275f0       0x51 object_files/kernel/video/videomanager.o
                0x001275f0                video_createDevice
 *fill*         0x00127641        0xf 
 .text.video_install
                0x00127650       0x96 object_files/kernel/video/videomanager.o
                0x00127650                video_install
 *fill*         0x001276e6        0xa 
 .text.video_freeDevice
                0x001276f0       0x28 object_files/kernel/video/videomanager.o
                0x001276f0                video_freeDevice
 *fill*         0x00127718        0x8 
 .text.video_setPixel
                0x00127720       0x1c object_files/kernel/video/videomanager.o
                0x00127720                video_setPixel
 *fill*         0x0012773c        0x4 
 .text.video_fillPixels
                0x00127740       0x91 object_files/kernel/video/videomanager.o
                0x00127740                video_fillPixels
 *fill*         0x001277d1        0xf 
 .text.video_copyPixels
                0x001277e0       0xa5 object_files/kernel/video/videomanager.o
                0x001277e0                video_copyPixels
 *fill*         0x00127885        0xb 
 .text.video_clearScreen
                0x00127890       0x69 object_files/kernel/video/videomanager.o
                0x00127890                video_clearScreen
 *fill*         0x001278f9        0x7 
 .text.video_test
                0x00127900      0x7c8 object_files/kernel/video/videomanager.o
                0x00127900                video_test
 *fill*         0x001280c8        0x8 
 .text.video_flipScreen
                0x001280d0       0x26 object_files/kernel/video/videomanager.o
                0x001280d0                video_flipScreen
 *fill*         0x001280f6        0xa 
 .text.video_getPixel
                0x00128100       0x27 object_files/kernel/video/videomanager.o
                0x00128100                video_getPixel
 .text          0x00128127        0x0 object_files/kernel/video/gui_window.o
 *fill*         0x00128127        0x9 
 .text.windowManager_init
                0x00128130       0x82 object_files/kernel/video/gui_window.o
                0x00128130                windowManager_init
 *fill*         0x001281b2        0xe 
 .text.window_destroy
                0x001281c0       0x63 object_files/kernel/video/gui_window.o
                0x001281c0                window_destroy
 *fill*         0x00128223        0xd 
 .text.windowManager_end
                0x00128230       0x6f object_files/kernel/video/gui_window.o
                0x00128230                windowManager_end
 *fill*         0x0012829f        0x1 
 .text.window_create
                0x001282a0       0xfd object_files/kernel/video/gui_window.o
                0x001282a0                window_create
 *fill*         0x0012839d        0x3 
 .text.window_draw
                0x001283a0       0xfb object_files/kernel/video/gui_window.o
                0x001283a0                window_draw
 .text          0x0012849b        0x0 object_files/kernel/video/usb_video.o
 *fill*         0x0012849b        0x5 
 .text.usb_vidshowStreamingControlParameterBlock
                0x001284a0       0xed object_files/kernel/video/usb_video.o
 *fill*         0x0012858d        0x3 
 .text.usb_vidRequest.constprop.7
                0x00128590       0x70 object_files/kernel/video/usb_video.o
 .text.usb_vidVideoControlError.constprop.6
                0x00128600       0xd2 object_files/kernel/video/usb_video.o
 *fill*         0x001286d2        0xe 
 .text.usb_vidPowerMode.constprop.4
                0x001286e0       0xc1 object_files/kernel/video/usb_video.o
 *fill*         0x001287a1        0xf 
 .text.usb_vidScanningMode.constprop.3
                0x001287b0       0xc1 object_files/kernel/video/usb_video.o
 *fill*         0x00128871        0xf 
 .text.usb_vidStillProbeControl
                0x00128880       0xc1 object_files/kernel/video/usb_video.o
 *fill*         0x00128941        0xf 
 .text.usb_vidCommitControl
                0x00128950       0xc1 object_files/kernel/video/usb_video.o
 *fill*         0x00128a11        0xf 
 .text.usb_vidProbeControl
                0x00128a20      0x149 object_files/kernel/video/usb_video.o
 *fill*         0x00128b69        0x7 
 .text.saveYUYV.constprop.8
                0x00128b70      0x148 object_files/kernel/video/usb_video.o
 *fill*         0x00128cb8        0x8 
 .text.usb_setupVideo
                0x00128cc0     0x1b3b object_files/kernel/video/usb_video.o
                0x00128cc0                usb_setupVideo
 *fill*         0x0012a7fb        0x5 
 .text.usb_destroyVideo
                0x0012a800       0x29 object_files/kernel/video/usb_video.o
                0x0012a800                usb_destroyVideo
 .text          0x0012a829        0x0 object_files/kernel/video/gui.o
 *fill*         0x0012a829        0x7 
 .text.gui_start
                0x0012a830      0x30c object_files/kernel/video/gui.o
                0x0012a830                gui_start
 *fill*         0x0012ab3c        0x4 
 .text.gui_end  0x0012ab40        0x9 object_files/kernel/video/gui.o
                0x0012ab40                gui_end
 .text          0x0012ab49        0x0 object_files/kernel/video/console.o
 *fill*         0x0012ab49        0x7 
 .text.scroll   0x0012ab50      0x110 object_files/kernel/video/console.o
 .text.putCP437ch
                0x0012ac60      0x1d0 object_files/kernel/video/console.o
 .text.atomic_puts
                0x0012ae30       0x5e object_files/kernel/video/console.o
 *fill*         0x0012ae8e        0x2 
 .text.displayConsole.part.0
                0x0012ae90       0x57 object_files/kernel/video/console.o
 *fill*         0x0012aee7        0x9 
 .text.getTextColor
                0x0012aef0        0xe object_files/kernel/video/console.o
                0x0012aef0                getTextColor
 *fill*         0x0012aefe        0x2 
 .text.textColor
                0x0012af00       0x14 object_files/kernel/video/console.o
                0x0012af00                textColor
 *fill*         0x0012af14        0xc 
 .text.kernel_console_init
                0x0012af20       0x1c object_files/kernel/video/console.o
                0x0012af20                kernel_console_init
 *fill*         0x0012af3c        0x4 
 .text.console_init
                0x0012af40      0x119 object_files/kernel/video/console.o
                0x0012af40                console_init
 *fill*         0x0012b059        0x7 
 .text.console_display
                0x0012b060       0x8a object_files/kernel/video/console.o
                0x0012b060                console_display
 *fill*         0x0012b0ea        0x6 
 .text.console_exit
                0x0012b0f0       0xb0 object_files/kernel/video/console.o
                0x0012b0f0                console_exit
 .text.console_cleanup
                0x0012b1a0       0x77 object_files/kernel/video/console.o
                0x0012b1a0                console_cleanup
 *fill*         0x0012b217        0x9 
 .text.console_incrementStack
                0x0012b220       0x6e object_files/kernel/video/console.o
                0x0012b220                console_incrementStack
 *fill*         0x0012b28e        0x2 
 .text.console_decrementStack
                0x0012b290       0x6e object_files/kernel/video/console.o
                0x0012b290                console_decrementStack
 *fill*         0x0012b2fe        0x2 
 .text.console_foldStack
                0x0012b300       0xf0 object_files/kernel/video/console.o
                0x0012b300                console_foldStack
 .text.setScrollField
                0x0012b3f0       0x16 object_files/kernel/video/console.o
                0x0012b3f0                setScrollField
 *fill*         0x0012b406        0xa 
 .text.console_setProperties
                0x0012b410       0x46 object_files/kernel/video/console.o
                0x0012b410                console_setProperties
 *fill*         0x0012b456        0xa 
 .text.console_clear
                0x0012b460       0x84 object_files/kernel/video/console.o
                0x0012b460                console_clear
 *fill*         0x0012b4e4        0xc 
 .text.setCursor
                0x0012b4f0       0x47 object_files/kernel/video/console.o
                0x0012b4f0                setCursor
 *fill*         0x0012b537        0x9 
 .text.getCursor
                0x0012b540       0x12 object_files/kernel/video/console.o
                0x0012b540                getCursor
 *fill*         0x0012b552        0xe 
 .text.console_setPixel
                0x0012b560       0x94 object_files/kernel/video/console.o
                0x0012b560                console_setPixel
 *fill*         0x0012b5f4        0xc 
 .text.putch    0x0012b600       0x69 object_files/kernel/video/console.o
                0x0012b600                putch
 *fill*         0x0012b669        0x7 
 .text.puts     0x0012b670       0x36 object_files/kernel/video/console.o
                0x0012b670                puts
 *fill*         0x0012b6a6        0xa 
 .text.printf   0x0012b6b0       0x14 object_files/kernel/video/console.o
                0x0012b6b0                printf
 *fill*         0x0012b6c4        0xc 
 .text.vprintf  0x0012b6d0      0x4f6 object_files/kernel/video/console.o
                0x0012b6d0                vprintf
 *fill*         0x0012bbc6        0xa 
 .text.printfe  0x0012bbd0       0x2e object_files/kernel/video/console.o
                0x0012bbd0                printfe
 *fill*         0x0012bbfe        0x2 
 .text.cprintf  0x0012bc00       0xa5 object_files/kernel/video/console.o
                0x0012bc00                cprintf
 .text          0x0012bca5        0x0 object_files/kernel/video/video.o
 *fill*         0x0012bca5        0xb 
 .text.vga_setPixel
                0x0012bcb0       0x4c object_files/kernel/video/video.o
                0x0012bcb0                vga_setPixel
 *fill*         0x0012bcfc        0x4 
 .text.vga_clearScreen
                0x0012bd00       0x36 object_files/kernel/video/video.o
                0x0012bd00                vga_clearScreen
 *fill*         0x0012bd36        0xa 
 .text.vga_fillLine
                0x0012bd40       0x5b object_files/kernel/video/video.o
                0x0012bd40                vga_fillLine
 *fill*         0x0012bd9b        0x5 
 .text.AsciiToCP437
                0x0012bda0      0x207 object_files/kernel/video/video.o
                0x0012bda0                AsciiToCP437
 *fill*         0x0012bfa7        0x9 
 .text.kputch   0x0012bfb0       0xa0 object_files/kernel/video/video.o
 .text.refreshInfoBar
                0x0012c050       0xb9 object_files/kernel/video/video.o
 *fill*         0x0012c109        0x7 
 .text.kprintf  0x0012c110      0x3a7 object_files/kernel/video/video.o
                0x0012c110                kprintf
 *fill*         0x0012c4b7        0x9 
 .text.writeInfo
                0x0012c4c0       0x47 object_files/kernel/video/video.o
                0x0012c4c0                writeInfo
 *fill*         0x0012c507        0x9 
 .text.refreshUserScreen
                0x0012c510       0xc1 object_files/kernel/video/video.o
                0x0012c510                refreshUserScreen
 *fill*         0x0012c5d1        0xf 
 .text.refreshScreen
                0x0012c5e0      0x149 object_files/kernel/video/video.o
                0x0012c5e0                refreshScreen
 *fill*         0x0012c729        0x7 
 .text.vga_install
                0x0012c730       0x59 object_files/kernel/video/video.o
                0x0012c730                vga_install
 *fill*         0x0012c789        0x7 
 .text.vga_updateCursor
                0x0012c790       0x51 object_files/kernel/video/video.o
                0x0012c790                vga_updateCursor
 *fill*         0x0012c7e1        0xf 
 .text.vga_installPCIDevice
                0x0012c7f0      0x178 object_files/kernel/video/video.o
                0x0012c7f0                vga_installPCIDevice
 *fill*         0x0012c968        0x8 
 .text.takeScreenshot
                0x0012c970       0xcc object_files/kernel/video/video.o
                0x0012c970                takeScreenshot
 *fill*         0x0012ca3c        0x4 
 .text.saveScreenshot
                0x0012ca40      0x10a object_files/kernel/video/video.o
                0x0012ca40                saveScreenshot
 .text          0x0012cb4a        0x0 object_files/kernel/video/vbe.o
 *fill*         0x0012cb4a        0x6 
 .text.Get_DAC_C
                0x0012cb50       0x30 object_files/kernel/video/vbe.o
                0x0012cb50                Get_DAC_C
 .text.vbe_detect
                0x0012cb80       0xde object_files/kernel/video/vbe.o
                0x0012cb80                vbe_detect
 *fill*         0x0012cc5e        0x2 
 .text.vbe_createDevice
                0x0012cc60       0x2e object_files/kernel/video/vbe.o
                0x0012cc60                vbe_createDevice
 *fill*         0x0012cc8e        0x2 
 .text.vbe_freeDevice
                0x0012cc90       0x12 object_files/kernel/video/vbe.o
                0x0012cc90                vbe_freeDevice
 *fill*         0x0012cca2        0xe 
 .text.vbe_createModeList
                0x0012ccb0      0x102 object_files/kernel/video/vbe.o
                0x0012ccb0                vbe_createModeList
 *fill*         0x0012cdb2        0xe 
 .text.vbe_freeMode
                0x0012cdc0       0x21 object_files/kernel/video/vbe.o
                0x0012cdc0                vbe_freeMode
 *fill*         0x0012cde1        0xf 
 .text.vbe_enterVideoMode
                0x0012cdf0      0x2d3 object_files/kernel/video/vbe.o
                0x0012cdf0                vbe_enterVideoMode
 *fill*         0x0012d0c3        0xd 
 .text.vbe_leaveVideoMode
                0x0012d0d0       0x29 object_files/kernel/video/vbe.o
                0x0012d0d0                vbe_leaveVideoMode
 *fill*         0x0012d0f9        0x7 
 .text.vbe_debug
                0x0012d100       0xe3 object_files/kernel/video/vbe.o
                0x0012d100                vbe_debug
 *fill*         0x0012d1e3        0xd 
 .text.vbe_setPixel
                0x0012d1f0      0x140 object_files/kernel/video/vbe.o
                0x0012d1f0                vbe_setPixel
 .text.vbe_fillPixels
                0x0012d330      0x190 object_files/kernel/video/vbe.o
                0x0012d330                vbe_fillPixels
 .text.vbe_getPixel
                0x0012d4c0      0x140 object_files/kernel/video/vbe.o
                0x0012d4c0                vbe_getPixel
 .text.vbe_clear
                0x0012d600       0x3f object_files/kernel/video/vbe.o
                0x0012d600                vbe_clear
 *fill*         0x0012d63f        0x1 
 .text.vbe_flipScreen
                0x0012d640       0xa3 object_files/kernel/video/vbe.o
                0x0012d640                vbe_flipScreen
 .text          0x0012d6e3        0x0 object_files/kernel/video/videoutils.o
 *fill*         0x0012d6e3        0xd 
 .text.getUncompressedPixelData
                0x0012d6f0      0x10a object_files/kernel/video/videoutils.o
 *fill*         0x0012d7fa        0x6 
 .text.video_drawLine
                0x0012d800      0x1e4 object_files/kernel/video/videoutils.o
                0x0012d800                video_drawLine
 *fill*         0x0012d9e4        0xc 
 .text.video_drawRect
                0x0012d9f0      0x124 object_files/kernel/video/videoutils.o
                0x0012d9f0                video_drawRect
 *fill*         0x0012db14        0xc 
 .text.video_drawRectFilled
                0x0012db20       0x66 object_files/kernel/video/videoutils.o
                0x0012db20                video_drawRectFilled
 *fill*         0x0012db86        0xa 
 .text.video_drawCartesianCircle
                0x0012db90      0x108 object_files/kernel/video/videoutils.o
                0x0012db90                video_drawCartesianCircle
 *fill*         0x0012dc98        0x8 
 .text.video_drawChar
                0x0012dca0      0x11b object_files/kernel/video/videoutils.o
                0x0012dca0                video_drawChar
 *fill*         0x0012ddbb        0x5 
 .text.video_drawString
                0x0012ddc0       0x4e object_files/kernel/video/videoutils.o
                0x0012ddc0                video_drawString
 *fill*         0x0012de0e        0x2 
 .text.video_drawBitmap
                0x0012de10      0x14a object_files/kernel/video/videoutils.o
                0x0012de10                video_drawBitmap
 *fill*         0x0012df5a        0x6 
 .text.video_drawBitmapTransparent
                0x0012df60      0x168 object_files/kernel/video/videoutils.o
                0x0012df60                video_drawBitmapTransparent
 *fill*         0x0012e0c8        0x8 
 .text.video_drawScaledBitmap
                0x0012e0d0      0x30f object_files/kernel/video/videoutils.o
                0x0012e0d0                video_drawScaledBitmap
 *fill*         0x0012e3df        0x1 
 .text.video_printPalette
                0x0012e3e0       0xa7 object_files/kernel/video/videoutils.o
                0x0012e3e0                video_printPalette
 *fill*         0x0012e487        0x9 
 .text.renderBuffer_create
                0x0012e490       0x82 object_files/kernel/video/videoutils.o
                0x0012e490                renderBuffer_create
 *fill*         0x0012e512        0xe 
 .text.renderBuffer_free
                0x0012e520       0x32 object_files/kernel/video/videoutils.o
                0x0012e520                renderBuffer_free
 *fill*         0x0012e552        0xe 
 .text.renderBuffer_render
                0x0012e560       0x6e object_files/kernel/video/videoutils.o
                0x0012e560                renderBuffer_render
 *fill*         0x0012e5ce        0x2 
 .text.renderBuffer_setPixel
                0x0012e5d0      0x16d object_files/kernel/video/videoutils.o
                0x0012e5d0                renderBuffer_setPixel
 *fill*         0x0012e73d        0x3 
 .text.renderBuffer_fillPixels
                0x0012e740      0x190 object_files/kernel/video/videoutils.o
                0x0012e740                renderBuffer_fillPixels
 .text.renderBuffer_copyPixels
                0x0012e8d0       0x9e object_files/kernel/video/videoutils.o
                0x0012e8d0                renderBuffer_copyPixels
 *fill*         0x0012e96e        0x2 
 .text.renderBuffer_clear
                0x0012e970       0x27 object_files/kernel/video/videoutils.o
                0x0012e970                renderBuffer_clear
 *fill*         0x0012e997        0x9 
 .text.renderBuffer_getPixel
                0x0012e9a0       0x28 object_files/kernel/video/videoutils.o
                0x0012e9a0                renderBuffer_getPixel
 *fill*         0x0012e9c8        0x8 
 .text.renderBuffer_flipScreen
                0x0012e9d0       0x63 object_files/kernel/video/videoutils.o
                0x0012e9d0                renderBuffer_flipScreen
 *fill*         0x0012ea33        0xd 
 .text.RGBtoYUV
                0x0012ea40       0xab object_files/kernel/video/videoutils.o
                0x0012ea40                RGBtoYUV
 *fill*         0x0012eaeb        0x5 
 .text.YUVtoRGB
                0x0012eaf0       0xda object_files/kernel/video/videoutils.o
                0x0012eaf0                YUVtoRGB
 *fill*         0x0012ebca        0x6 
 .text.showYUYV
                0x0012ebd0      0x124 object_files/kernel/video/videoutils.o
                0x0012ebd0                showYUYV
 .text          0x0012ecf4        0x0 object_files/kernel/video/gui_button.o
 *fill*         0x0012ecf4        0xc 
 .text.button_create
                0x0012ed00       0x3d object_files/kernel/video/gui_button.o
                0x0012ed00                button_create
 *fill*         0x0012ed3d        0x3 
 .text.button_draw
                0x0012ed40       0xb2 object_files/kernel/video/gui_button.o
                0x0012ed40                button_draw
 *fill*         0x0012edf2        0xe 
 .text.button_destroy
                0x0012ee00       0x11 object_files/kernel/video/gui_button.o
                0x0012ee00                button_destroy
 *fill*         0x0012ee11        0xf 
 .text          0x0012ee20       0x28 object_files/kernel/kernel.o
 *fill*         0x0012ee48        0x8 
 .text          0x0012ee50     0x3807 object_files/kernel/data.o
                0x0012ee50                shell_start
                0x00131fd8                shell_end
                0x00131fd8                vidswtch_com_start
                0x00132031                vidswtch_com_end
                0x00132031                apm_com_start
                0x001320f1                apm_com_end
                0x001320f1                cursor_start
                0x00132657                cursor_end
 *fill*         0x00132657        0x9 
 .text          0x00132660      0xac8 object_files/kernel/interrupts.o
                0x001330a1                ir_common_stub
                0x001330d3                idt_install
                0x001330f6                pic_remap
                0x00133119                pic_disable
 *fill*         0x00133128        0x8 
 .text          0x00133130       0x25 object_files/kernel/flush.o
                0x00133130                gdt_flush
                0x0013314d                tss_flush
 *(.text)

.rodata         0x00133160     0xe208
 *(.rodata*)
 .rodata.logText.str1.1
                0x00133160        0xb object_files/kernel/ckernel.o
 .rodata.logExec.str1.1
                0x0013316b        0xc object_files/kernel/ckernel.o
 .rodata.main.str1.1
                0x00133177      0x111 object_files/kernel/ckernel.o
 .rodata.main.str1.4
                0x00133288      0x173 object_files/kernel/ckernel.o
 *fill*         0x001333fb        0x1 
 .rodata.main   0x001333fc       0x88 object_files/kernel/ckernel.o
 .rodata.str1.1
                0x00133484       0x16 object_files/kernel/ckernel.o
 *fill*         0x0013349a        0x2 
 .rodata.version
                0x0013349c        0x4 object_files/kernel/ckernel.o
                0x0013349c                version
 .rodata.nopm_action.str1.4
                0x001334a0       0x51 object_files/kernel/power_management.o
 *fill*         0x001334f1        0x3 
 .rodata.powmgmt_install.str1.4
                0x001334f4       0xa3 object_files/kernel/power_management.o
 *fill*         0x00133597        0x1 
 .rodata.powmgmt_install
                0x00133598       0x14 object_files/kernel/power_management.o
 .rodata.powmgmt_log.str1.1
                0x001335ac       0x24 object_files/kernel/power_management.o
 .rodata.pe_checkFilename.str1.1
                0x001335d0        0x5 object_files/kernel/pe.o
 .rodata.pe_prepareExecution.str1.1
                0x001335d5       0x50 object_files/kernel/pe.o
 *fill*         0x00133625        0x3 
 .rodata.pe_prepareExecution.str1.4
                0x00133628       0x44 object_files/kernel/pe.o
 .rodata.executeFile.str1.1
                0x0013366c       0x55 object_files/kernel/executable.o
 *fill*         0x001336c1        0x3 
 .rodata.executeFile.str1.4
                0x001336c4       0x37 object_files/kernel/executable.o
 *fill*         0x001336fb        0x1 
 .rodata.filetypes
                0x001336fc       0x18 object_files/kernel/executable.o
 .rodata.allocateNewReg.str1.1
                0x00133714       0x23 object_files/kernel/userheap.o
 .rodata.userHeap_create.str1.1
                0x00133737        0xb object_files/kernel/userheap.o
 .rodata.event_createQueue.str1.1
                0x00133742        0xc object_files/kernel/events.o
 .rodata.event_issue.str1.1
                0x0013374e       0x1c object_files/kernel/events.o
 *fill*         0x0013376a       0x16 
 .rodata.syscalls
                0x00133780      0x198 object_files/kernel/syscall.o
 *fill*         0x00133918        0x8 
 .rodata.dma_channel
                0x00133920       0x20 object_files/kernel/dma.o
                0x00133920                dma_channel
 .rodata.paging_install.str1.4
                0x00133940       0x45 object_files/kernel/paging.o
 .rodata.paging_install.str1.1
                0x00133985       0x4d object_files/kernel/paging.o
 *fill*         0x001339d2        0x2 
 .rodata.paging_freeVirtMem.str1.4
                0x001339d4       0x6b object_files/kernel/paging.o
 .rodata.paging_freeVirtMem.str1.1
                0x00133a3f       0x10 object_files/kernel/paging.o
 .rodata.paging_allocVirtAddr.str1.1
                0x00133a4f       0x26 object_files/kernel/paging.o
 *fill*         0x00133a75        0x3 
 .rodata.paging_mapVirtToPhysAddr.str1.4
                0x00133a78       0x23 object_files/kernel/paging.o
 .rodata.paging_mapVirtToPhysAddr.str1.1
                0x00133a9b       0x18 object_files/kernel/paging.o
 .rodata.paging_alloc.str1.1
                0x00133ab3       0x15 object_files/kernel/paging.o
 .rodata.paging_alloc.str1.4
                0x00133ac8       0x61 object_files/kernel/paging.o
 *fill*         0x00133b29        0x3 
 .rodata.paging_allocNew.str1.4
                0x00133b2c       0x2a object_files/kernel/paging.o
 *fill*         0x00133b56        0x2 
 .rodata.paging_free.str1.4
                0x00133b58       0x76 object_files/kernel/paging.o
 *fill*         0x00133bce        0x2 
 .rodata.paging_setFlags.str1.4
                0x00133bd0       0x99 object_files/kernel/paging.o
 .rodata.paging_createPageDirectory.str1.1
                0x00133c69       0x10 object_files/kernel/paging.o
 .rodata.paging_destroyPageDirectory.str1.1
                0x00133c79       0x1a object_files/kernel/paging.o
 *fill*         0x00133c93        0x1 
 .rodata.paging_allocMMIO.str1.4
                0x00133c94       0x2f object_files/kernel/paging.o
 .rodata.paging_analyzeBitTable.str1.1
                0x00133cc3       0x18 object_files/kernel/paging.o
 .rodata.printSupport.str1.1
                0x00133cdb        0x9 object_files/kernel/cpu.o
 .rodata.cpu_install.str1.1
                0x00133ce4       0x1d object_files/kernel/cpu.o
 .rodata.cpu_analyze.str1.1
                0x00133d01       0x7f object_files/kernel/cpu.o
 .rodata.cpu_analyze.str1.4
                0x00133d80       0x25 object_files/kernel/cpu.o
 .rodata.fpu_test.str1.1
                0x00133da5       0x35 object_files/kernel/cpu.o
 *fill*         0x00133dda        0x2 
 .rodata.cst4   0x00133ddc        0x4 object_files/kernel/cpu.o
 .rodata.cst16  0x00133de0       0x10 object_files/kernel/cpu.o
 .rodata.ipc_printNode.str1.1
                0x00133df0       0x49 object_files/kernel/ipc.o
 *fill*         0x00133e39        0x3 
 .rodata.ipc_printNode
                0x00133e3c       0x1c object_files/kernel/ipc.o
 .rodata.getNode.isra.0.str1.1
                0x00133e58        0x4 object_files/kernel/ipc.o
 .rodata.createNode.part.1.str1.1
                0x00133e5c       0x1c object_files/kernel/ipc.o
 .rodata.ipc_print.str1.1
                0x00133e78        0x6 object_files/kernel/ipc.o
 .rodata.ipc_getFolder.str1.1
                0x00133e7e        0x2 object_files/kernel/ipc.o
 .rodata.ipc_setString.str1.1
                0x00133e80        0xb object_files/kernel/ipc.o
 .rodata.ipc_setAccess.str1.1
                0x00133e8b       0x12 object_files/kernel/ipc.o
 .rodata.serial_init.str1.1
                0x00133e9d       0x1c object_files/kernel/serial.o
 .rodata.elf_checkFilename.str1.1
                0x00133eb9        0x5 object_files/kernel/elf.o
 .rodata.installHandler.str1.1
                0x00133ebe        0xc object_files/kernel/irq.o
 *fill*         0x00133eca        0x2 
 .rodata.quitTask.str1.4
                0x00133ecc       0x99 object_files/kernel/irq.o
 .rodata.PF.str1.1
                0x00133f65       0x59 object_files/kernel/irq.o
 *fill*         0x00133fbe        0x2 
 .rodata.PF.str1.4
                0x00133fc0       0x50 object_files/kernel/irq.o
 .rodata.invalidOpcode.str1.4
                0x00134010       0xa2 object_files/kernel/irq.o
 .rodata.invalidOpcode.str1.1
                0x001340b2       0x1b object_files/kernel/irq.o
 .rodata.defaultError.str1.1
                0x001340cd       0x19 object_files/kernel/irq.o
 .rodata.NM.str1.1
                0x001340e6        0x7 object_files/kernel/irq.o
 *fill*         0x001340ed        0x3 
 .rodata.GPF.str1.4
                0x001340f0       0x31 object_files/kernel/irq.o
 .rodata.str1.1
                0x00134121      0x14b object_files/kernel/irq.o
 *fill*         0x0013426c       0x14 
 .rodata.exceptionMessages
                0x00134280       0x80 object_files/kernel/irq.o
 .rodata.pci_analyzeHostSystemError.str1.1
                0x00134300       0xdb object_files/kernel/pci.o
 *fill*         0x001343db        0x1 
 .rodata.pci_analyzeHostSystemError.str1.4
                0x001343dc       0x28 object_files/kernel/pci.o
 .rodata.pci_trySetMSIVector.str1.1
                0x00134404       0x3b object_files/kernel/pci.o
 *fill*         0x0013443f        0x1 
 .rodata.pci_trySetMSIVector.str1.4
                0x00134440       0x1f object_files/kernel/pci.o
 .rodata.pci_scanBus.str1.1
                0x0013445f       0xd2 object_files/kernel/pci.o
 .rodata.log_flushSecondary.str1.1
                0x00134531       0x24 object_files/kernel/log.o
 .rodata.log_showScreenStatus.str1.1
                0x00134555       0x27 object_files/kernel/log.o
 .rodata.log_showSecondaryStatus.str1.4
                0x0013457c       0x32 object_files/kernel/log.o
 .rodata.log_showSecondaryStatus.str1.1
                0x001345ae        0xf object_files/kernel/log.o
 .rodata.log_vprintf.str1.1
                0x001345bd        0xb object_files/kernel/log.o
 .rodata.CSWTCH.66
                0x001345c8        0x4 object_files/kernel/log.o
 *fill*         0x001345cc       0x14 
 .rodata.CSWTCH.64
                0x001345e0       0x48 object_files/kernel/log.o
 .rodata.writeInt.constprop.0.str1.1
                0x00134628        0x7 object_files/kernel/time.o
 .rodata.getCurrentDateAndTime.str1.1
                0x0013462f       0x18 object_files/kernel/time.o
 .rodata.str1.1
                0x00134647       0x8f object_files/kernel/time.o
 *fill*         0x001346d6        0xa 
 .rodata.months
                0x001346e0       0x30 object_files/kernel/time.o
 .rodata.weekdays
                0x00134710       0x1c object_files/kernel/time.o
 .rodata.days   0x0013472c       0x18 object_files/kernel/time.o
 .rodata.ioapic_available.str1.4
                0x00134744       0x25 object_files/kernel/apic.o
 .rodata.ioapic_install.str1.1
                0x00134769       0x4f object_files/kernel/apic.o
 .rodata.malloc.str1.1
                0x001347b8       0x30 object_files/kernel/kheap.o
 .rodata.malloc.str1.4
                0x001347e8       0x33 object_files/kernel/kheap.o
 .rodata.free.str1.1
                0x0013481b       0x12 object_files/kernel/kheap.o
 *fill*         0x0013482d        0x3 
 .rodata.heap_logRegions.str1.4
                0x00134830       0xf2 object_files/kernel/kheap.o
 .rodata.heap_logRegions.str1.1
                0x00134922       0x22 object_files/kernel/kheap.o
 .rodata.str1.1
                0x00134944       0x1a object_files/kernel/acpi/parser.o
 *fill*         0x0013495e        0x2 
 .rodata.acpi_parserBasePath
                0x00134960        0x4 object_files/kernel/acpi/parser.o
                0x00134960                acpi_parserBasePath
 .rodata.findRootSystemDescriptorPointer.str1.1
                0x00134964        0x9 object_files/kernel/acpi/acpi.o
 .rodata.acpi_parseRSDT.str1.1
                0x0013496d       0x25 object_files/kernel/acpi/acpi.o
 .rodata.acpi_registerParser.str1.1
                0x00134992        0xe object_files/kernel/acpi/acpi.o
 .rodata.ACPI_TABSIG_RSDT
                0x001349a0        0x4 object_files/kernel/acpi/acpi.o
                0x001349a0                ACPI_TABSIG_RSDT
 .rodata.acpi_parser_fadt.str1.1
                0x001349a4       0x1a object_files/kernel/acpi/fadt.o
 *fill*         0x001349be        0x2 
 .rodata.fadtPath
                0x001349c0        0x4 object_files/kernel/acpi/fadt.o
                0x001349c0                fadtPath
 .rodata.acpi_parser_madt.str1.1
                0x001349c4       0xbe object_files/kernel/acpi/madt.o
 *fill*         0x00134a82        0x2 
 .rodata.acpi_parser_madt
                0x00134a84       0x18 object_files/kernel/acpi/madt.o
 .rodata.madtPath
                0x00134a9c        0x4 object_files/kernel/acpi/madt.o
                0x00134a9c                madtPath
 .rodata.wav_parseWAV.str1.1
                0x00134aa0      0x112 object_files/kernel/audio/wav.o
 .rodata.wav_playStartWav.str1.1
                0x00134bb2       0x19 object_files/kernel/audio/wav.o
 *fill*         0x00134bcb        0x1 
 .rodata.wav_playStartWav.str1.4
                0x00134bcc       0x20 object_files/kernel/audio/wav.o
 .rodata.ac97Intel_install.str1.1
                0x00134bec       0x62 object_files/kernel/audio/ac97_intel.o
 *fill*         0x00134c4e        0x2 
 .rodata.audio_test.str1.4
                0x00134c50       0x23 object_files/kernel/audio/audio.o
 .rodata.audio_test.str1.1
                0x00134c73       0x17 object_files/kernel/audio/audio.o
 .rodata.codec_readStatus.constprop.1.str1.1
                0x00134c8a       0x1b object_files/kernel/audio/ac97_via.o
 *fill*         0x00134ca5        0x3 
 .rodata.codec_readStatus.constprop.1.str1.4
                0x00134ca8       0x2f object_files/kernel/audio/ac97_via.o
 .rodata.ac97Via_install.str1.1
                0x00134cd7       0x79 object_files/kernel/audio/ac97_via.o
 .rodata.cdi_mem_alloc.str1.1
                0x00134d50       0x2d object_files/kernel/cdi/cdi_mem.o
 .rodata.cdi_pci_get_all_devices.str1.1
                0x00134d7d       0x21 object_files/kernel/cdi/cdi_pci.o
 .rodata.folderAccess_internal.str1.1
                0x00134d9e        0xd object_files/kernel/filesystem/fsmanager.o
 .rodata.getFolder_recursive.str1.1
                0x00134dab       0x1b object_files/kernel/filesystem/fsmanager.o
 .rodata.indentNewLine.str1.1
                0x00134dc6        0x5 object_files/kernel/filesystem/fsmanager.o
 .rodata.logSubtree.str1.1
                0x00134dcb       0x19 object_files/kernel/filesystem/fsmanager.o
 .rodata.getFolder.str1.1
                0x00134de4        0xd object_files/kernel/filesystem/fsmanager.o
 *fill*         0x00134df1        0x3 
 .rodata.fopen.str1.4
                0x00134df4       0x23 object_files/kernel/filesystem/fsmanager.o
 .rodata.fopen.str1.1
                0x00134e17       0x1a object_files/kernel/filesystem/fsmanager.o
 .rodata.fmove.str1.1
                0x00134e31        0xf object_files/kernel/filesystem/fsmanager.o
 .rodata.fmove.str1.4
                0x00134e40       0x2e object_files/kernel/filesystem/fsmanager.o
 .rodata.folderAccess.str1.1
                0x00134e6e       0x11 object_files/kernel/filesystem/fsmanager.o
 .rodata.analyzePartition.str1.1
                0x00134e7f       0x11 object_files/kernel/filesystem/fsmanager.o
 .rodata.fsmanager_log.str1.1
                0x00134e90       0x2c object_files/kernel/filesystem/fsmanager.o
 *fill*         0x00134ebc        0x4 
 .rodata.RAMFS  0x00134ec0       0x38 object_files/kernel/filesystem/fsmanager.o
                0x00134ec0                RAMFS
 *fill*         0x00134ef8        0x8 
 .rodata.FAT    0x00134f00       0x38 object_files/kernel/filesystem/fsmanager.o
                0x00134f00                FAT
 .rodata.FAT_fopen.str1.1
                0x00134f38       0x12 object_files/kernel/filesystem/fat.o
 .rodata.FAT_folderAccess.str1.1
                0x00134f4a       0x25 object_files/kernel/filesystem/fat.o
 .rodata.FAT_format.str1.1
                0x00134f6f       0x32 object_files/kernel/filesystem/fat.o
 .rodata.FAT_pinstall.str1.1
                0x00134fa1       0x1b object_files/kernel/filesystem/fat.o
 *fill*         0x00134fbc        0x4 
 .rodata.DskTableFAT16
                0x00134fc0       0x48 object_files/kernel/filesystem/fat.o
 *fill*         0x00135008       0x18 
 .rodata.DskTableFAT32
                0x00135020       0x38 object_files/kernel/filesystem/fat.o
 *fill*         0x00135058        0x8 
 .rodata.clusterVal
                0x00135060       0x24 object_files/kernel/filesystem/fat.o
 .rodata.ramdisk_install.str1.1
                0x00135084       0x28 object_files/kernel/filesystem/ramdisk.o
 .rodata.ramdisk_openFile.str1.1
                0x001350ac       0x1e object_files/kernel/filesystem/ramdisk.o
 *fill*         0x001350ca        0x2 
 .rodata.ramdisk_openFile
                0x001350cc       0xdc object_files/kernel/filesystem/ramdisk.o
 .rodata.ramdisk_fwrite.str1.1
                0x001351a8        0xd object_files/kernel/filesystem/ramdisk.o
 .rodata.ramdisk_loadShell.str1.1
                0x001351b5       0x18 object_files/kernel/filesystem/ramdisk.o
 *fill*         0x001351cd        0x3 
 .rodata.ramdisk_loadShell.str1.4
                0x001351d0       0x21 object_files/kernel/filesystem/ramdisk.o
 *fill*         0x001351f1        0x3 
 .rodata.ramdisk_folderAccess.str1.4
                0x001351f4       0x1f object_files/kernel/filesystem/ramdisk.o
 .rodata.str1.1
                0x00135213        0xa object_files/kernel/filesystem/ramdisk.o
 .rodata.flpydsk_read_directory.str1.1
                0x0013521d       0x4d object_files/kernel/filesystem/fat12.o
 *fill*         0x0013526a        0x2 
 .rodata.flpydsk_read_directory.str1.4
                0x0013526c       0x40 object_files/kernel/filesystem/fat12.o
 .rodata.keyboard_keyPressedEvent.str1.1
                0x001352ac       0x33 object_files/kernel/hid/keyboard.o
 *fill*         0x001352df        0x1 
 .rodata.scancodeToKey_E0
                0x001352e0      0x200 object_files/kernel/hid/keyboard.o
 .rodata.scancodeToKey_default
                0x001354e0      0x200 object_files/kernel/hid/keyboard.o
 .rodata.keyToASCII_shiftAltGr
                0x001356e0       0x6a object_files/kernel/hid/keyboard.o
 *fill*         0x0013574a       0x16 
 .rodata.keyToASCII_altGr
                0x00135760       0x6a object_files/kernel/hid/keyboard.o
 *fill*         0x001357ca       0x16 
 .rodata.keyToASCII_shift
                0x001357e0       0x6a object_files/kernel/hid/keyboard.o
 *fill*         0x0013584a       0x16 
 .rodata.keyToASCII_default
                0x00135860       0x6a object_files/kernel/hid/keyboard.o
 .rodata.mouse_wait.str1.1
                0x001358ca       0x15 object_files/kernel/hid/mouse.o
 *fill*         0x001358df        0x1 
 .rodata.mouse_print.part.3.str1.4
                0x001358e0       0xcd object_files/kernel/hid/mouse.o
 *fill*         0x001359ad        0x3 
 .rodata.mouse_handler.str1.4
                0x001359b0       0x38 object_files/kernel/hid/mouse.o
 .rodata.usb_setupHID.str1.1
                0x001359e8       0x76 object_files/kernel/hid/usb_hid.o
 *fill*         0x00135a5e        0x2 
 .rodata.usb_setupHID.str1.4
                0x00135a60       0x6d object_files/kernel/hid/usb_hid.o
 *fill*         0x00135acd       0x13 
 .rodata.usageIdToKey
                0x00135ae0      0x400 object_files/kernel/hid/usb_hid.o
 .rodata.udp_bind.str1.1
                0x00135ee0        0xb object_files/kernel/netprotocol/udp.o
 .rodata.udp_receive.str1.1
                0x00135eeb       0x15 object_files/kernel/netprotocol/udp.o
 .rodata.udp_send.str1.1
                0x00135f00        0xb object_files/kernel/netprotocol/udp.o
 .rodata.icmp_sendEchoRequest.str1.1
                0x00135f0b       0x29 object_files/kernel/netprotocol/icmp.o
 .rodata.icmp_receive.str1.1
                0x00135f34       0x30 object_files/kernel/netprotocol/icmp.o
 .rodata.icmp_receive.str1.4
                0x00135f64       0x22 object_files/kernel/netprotocol/icmp.o
 *fill*         0x00135f86       0x1a 
 .rodata.data.2105
                0x00135fa0       0x62 object_files/kernel/netprotocol/icmp.o
 *fill*         0x00136002        0x2 
 .rodata.ipv4_received.str1.4
                0x00136004       0x29 object_files/kernel/netprotocol/ipv4.o
 .rodata.ipv4_send.str1.1
                0x0013602d       0x26 object_files/kernel/netprotocol/ipv4.o
 .rodata.ipv6_received.str1.1
                0x00136053       0x24 object_files/kernel/netprotocol/ipv6.o
 *fill*         0x00136077        0x1 
 .rodata.ipv6_received.str1.4
                0x00136078       0x2b object_files/kernel/netprotocol/ipv6.o
 .rodata.ipv6_send.str1.1
                0x001360a3        0xc object_files/kernel/netprotocol/ipv6.o
 .rodata.ethernet_send.str1.1
                0x001360af       0x10 object_files/kernel/netprotocol/ethernet.o
 *fill*         0x001360bf        0x1 
 .rodata.broadcast_MAC_00
                0x001360c0        0x6 object_files/kernel/netprotocol/ethernet.o
 *fill*         0x001360c6        0x2 
 .rodata.broadcast_MAC_FF
                0x001360c8        0x6 object_files/kernel/netprotocol/ethernet.o
 .rodata.arp_addTableEntry.str1.1
                0x001360ce        0xa object_files/kernel/netprotocol/arp.o
 .rodata.arp_showTable.str1.1
                0x001360d8       0x40 object_files/kernel/netprotocol/arp.o
 .rodata.arp_showTable.str1.4
                0x00136118       0xa5 object_files/kernel/netprotocol/arp.o
 *fill*         0x001361bd        0x3 
 .rodata.arp_received.str1.4
                0x001361c0       0x34 object_files/kernel/netprotocol/arp.o
 .rodata.destMAC.2155
                0x001361f4        0x6 object_files/kernel/netprotocol/arp.o
 *fill*         0x001361fa        0x2 
 .rodata.tcp_deleteInBuffers.part.1.str1.4
                0x001361fc       0x6f object_files/kernel/netprotocol/tcp.o
 *fill*         0x0013626b        0x1 
 .rodata.tcp_deleteConnection.part.2.str1.4
                0x0013626c       0x96 object_files/kernel/netprotocol/tcp.o
 .rodata.tcp_deleteConnection.part.2.str1.1
                0x00136302       0x3d object_files/kernel/netprotocol/tcp.o
 .rodata.tcp_createConnection.str1.1
                0x0013633f        0xf object_files/kernel/netprotocol/tcp.o
 .rodata.tcp_send.str1.1
                0x0013634e       0x5d object_files/kernel/netprotocol/tcp.o
 *fill*         0x001363ab        0x1 
 .rodata.tcp_send
                0x001363ac       0x1c object_files/kernel/netprotocol/tcp.o
 .rodata.tcp_close
                0x001363c8       0x24 object_files/kernel/netprotocol/tcp.o
 .rodata.tcp_receive.str1.1
                0x001363ec       0xa4 object_files/kernel/netprotocol/tcp.o
 .rodata.tcp_receive.str1.4
                0x00136490      0x142 object_files/kernel/netprotocol/tcp.o
 *fill*         0x001365d2        0x2 
 .rodata.tcp_receive
                0x001365d4       0x2c object_files/kernel/netprotocol/tcp.o
 .rodata.tcp_showConnections.str1.1
                0x00136600       0x43 object_files/kernel/netprotocol/tcp.o
 *fill*         0x00136643        0x1 
 .rodata.tcp_showConnections.str1.4
                0x00136644       0xa6 object_files/kernel/netprotocol/tcp.o
 *fill*         0x001366ea        0x2 
 .rodata.tcp_usend.str1.4
                0x001366ec       0x77 object_files/kernel/netprotocol/tcp.o
 .rodata.tcp_usend.str1.1
                0x00136763       0x34 object_files/kernel/netprotocol/tcp.o
 .rodata.str1.1
                0x00136797       0x6c object_files/kernel/netprotocol/tcp.o
 *fill*         0x00136803       0x1d 
 .rodata.tcpStates
                0x00136820       0x2c object_files/kernel/netprotocol/tcp.o
 .rodata.DHCP_AnalyzeServerMessage.str1.1
                0x0013684c        0xe object_files/kernel/netprotocol/dhcp.o
 *fill*         0x0013685a        0x2 
 .rodata.DHCP_AnalyzeServerMessage.str1.4
                0x0013685c       0x4e object_files/kernel/netprotocol/dhcp.o
 *fill*         0x001368aa        0x2 
 .rodata.e1000e_read_flash.str1.4
                0x001368ac      0x133 object_files/kernel/network/e1000.o
 .rodata.e1000_handle_interrupt.str1.1
                0x001369df       0x18 object_files/kernel/network/e1000.o
 *fill*         0x001369f7        0x1 
 .rodata.e1000_init_device.str1.4
                0x001369f8       0xa7 object_files/kernel/network/e1000.o
 .rodata.e1000_init_device.str1.1
                0x00136a9f       0x29 object_files/kernel/network/e1000.o
 .rodata.e1000_send_packet.str1.4
                0x00136ac8       0x2e object_files/kernel/network/e1000.o
 .rodata.network_createDevice.str1.1
                0x00136af6       0x11 object_files/kernel/network/network.o
 .rodata.network_installDevice.str1.1
                0x00136b07       0x5f object_files/kernel/network/network.o
 .rodata.network_displayArpTables.str1.1
                0x00136b66       0x1f object_files/kernel/network/network.o
 *fill*         0x00136b85       0x1b 
 .rodata.network_drivers
                0x00136ba0       0x24 object_files/kernel/network/network.o
                0x00136ba0                network_drivers
 .rodata.rtl8168_install.str1.1
                0x00136bc4       0x29 object_files/kernel/network/rtl8168.o
 *fill*         0x00136bed        0x3 
 .rodata.rtl8168_install.str1.4
                0x00136bf0       0x2f object_files/kernel/network/rtl8168.o
 .rodata.rtl8168_handler.str1.1
                0x00136c1f       0x89 object_files/kernel/network/rtl8168.o
 .rodata.str1.1
                0x00136ca8        0x6 object_files/kernel/network/e1000_cdi.o
 .rodata.PCNet_install.str1.1
                0x00136cae       0x69 object_files/kernel/network/pcnet.o
 *fill*         0x00136d17        0x1 
 .rodata.PCNet_send.str1.4
                0x00136d18       0x30 object_files/kernel/network/pcnet.o
 .rodata.PCNet_handler.str1.1
                0x00136d48       0x33 object_files/kernel/network/pcnet.o
 .rodata.rtl8139_handler.str1.1
                0x00136d7b       0x73 object_files/kernel/network/rtl8139.o
 *fill*         0x00136dee        0x2 
 .rodata.rtl8139_handler.str1.4
                0x00136df0       0x49 object_files/kernel/network/rtl8139.o
 .rodata.rtl8139_install.str1.1
                0x00136e39       0x5b object_files/kernel/network/rtl8139.o
 .rodata.rtl8139_install.str1.4
                0x00136e94       0x59 object_files/kernel/network/rtl8139.o
 *fill*         0x00136eed        0x3 
 .rodata.rtl8139_send.str1.4
                0x00136ef0       0x35 object_files/kernel/network/rtl8139.o
 *fill*         0x00136f25        0x3 
 .rodata.formatSCSICommand
                0x00136f28       0xac object_files/kernel/storage/usb_msd.o
 .rodata.formatSCSICommandUFI
                0x00136fd4       0xa0 object_files/kernel/storage/usb_msd.o
 .rodata.usb_sendSCSICommand.str1.4
                0x00137074       0x87 object_files/kernel/storage/usb_msd.o
 .rodata.usb_sendSCSICommand.str1.1
                0x001370fb       0x97 object_files/kernel/storage/usb_msd.o
 .rodata.usb_setupMSD.str1.1
                0x00137192      0x12a object_files/kernel/storage/usb_msd.o
 .rodata.usb_setupMSD.str1.4
                0x001372bc      0x1b7 object_files/kernel/storage/usb_msd.o
 .rodata.str1.1
                0x00137473      0x10a object_files/kernel/storage/usb_msd.o
 *fill*         0x0013757d        0x3 
 .rodata.str1.4
                0x00137580      0x441 object_files/kernel/storage/usb_msd.o
 *fill*         0x001379c1       0x1f 
 .rodata.SenseKeys.2457
                0x001379e0       0x40 object_files/kernel/storage/usb_msd.o
 .rodata.PeripheralDeviceTypes.2420
                0x00137a20       0x5c object_files/kernel/storage/usb_msd.o
 .rodata.deviceManager_fillCache.part.1.str1.1
                0x00137a7c        0xd object_files/kernel/storage/devicemanager.o
 .rodata.deviceManager_install.str1.1
                0x00137a89       0x1b object_files/kernel/storage/devicemanager.o
 .rodata.deviceManager_destructPort.str1.1
                0x00137aa4       0x1d object_files/kernel/storage/devicemanager.o
 *fill*         0x00137ac1        0x3 
 .rodata.deviceManager_destructPort.str1.4
                0x00137ac4       0x1f object_files/kernel/storage/devicemanager.o
 .rodata.deviceManager_showPortList.str1.1
                0x00137ae3       0x83 object_files/kernel/storage/devicemanager.o
 *fill*         0x00137b66        0x2 
 .rodata.deviceManager_showPortList.str1.4
                0x00137b68       0xbd object_files/kernel/storage/devicemanager.o
 .rodata.deviceManager_showDiskList.str1.1
                0x00137c25       0x4f object_files/kernel/storage/devicemanager.o
 .rodata.deviceManager_showDiskList.str1.4
                0x00137c74       0x26 object_files/kernel/storage/devicemanager.o
 *fill*         0x00137c9a        0x2 
 .rodata.deviceManager_analyzeDisk.str1.4
                0x00137c9c       0x8c object_files/kernel/storage/devicemanager.o
 .rodata.deviceManager_analyzeDisk.str1.1
                0x00137d28       0x37 object_files/kernel/storage/devicemanager.o
 *fill*         0x00137d5f        0x1 
 .rodata.RAMDISK
                0x00137d60        0x8 object_files/kernel/storage/devicemanager.o
                0x00137d60                RAMDISK
 .rodata.USB_MSD
                0x00137d68        0x8 object_files/kernel/storage/devicemanager.o
                0x00137d68                USB_MSD
 .rodata.FLOPPYDISK
                0x00137d70        0x8 object_files/kernel/storage/devicemanager.o
                0x00137d70                FLOPPYDISK
 .rodata.HDD    0x00137d78        0x8 object_files/kernel/storage/devicemanager.o
                0x00137d78                HDD
 .rodata.RAM    0x00137d80        0x8 object_files/kernel/storage/devicemanager.o
                0x00137d80                RAM
 .rodata.USB_XHCI
                0x00137d88        0x8 object_files/kernel/storage/devicemanager.o
                0x00137d88                USB_XHCI
 .rodata.USB_EHCI
                0x00137d90        0x8 object_files/kernel/storage/devicemanager.o
                0x00137d90                USB_EHCI
 .rodata.USB_OHCI
                0x00137d98        0x8 object_files/kernel/storage/devicemanager.o
                0x00137d98                USB_OHCI
 .rodata.USB_UHCI
                0x00137da0        0x8 object_files/kernel/storage/devicemanager.o
                0x00137da0                USB_UHCI
 .rodata.FDD    0x00137da8        0x8 object_files/kernel/storage/devicemanager.o
                0x00137da8                FDD
 .rodata.createFloppy.str1.1
                0x00137db0       0x19 object_files/kernel/storage/flpydsk.o
 .rodata.flpydsk_install.str1.1
                0x00137dc9       0x65 object_files/kernel/storage/flpydsk.o
 .rodata.flpydsk_readSectors.str1.1
                0x00137e2e       0x29 object_files/kernel/storage/flpydsk.o
 *fill*         0x00137e57        0x1 
 .rodata.flpydsk_readSectors.str1.4
                0x00137e58       0x22 object_files/kernel/storage/flpydsk.o
 *fill*         0x00137e7a        0x2 
 .rodata.flpydsk_writeSectors.str1.4
                0x00137e7c       0x4a object_files/kernel/storage/flpydsk.o
 .rodata.flpydsk_writeSectors.str1.1
                0x00137ec6        0x9 object_files/kernel/storage/flpydsk.o
 *fill*         0x00137ecf        0x1 
 .rodata.CSWTCH.52
                0x00137ed0       0x10 object_files/kernel/storage/flpydsk.o
 .rodata.semaphore_create.str1.1
                0x00137ee0        0xa object_files/kernel/tasking/synchronisation.o
 .rodata.mutex_create.str1.1
                0x00137eea        0x6 object_files/kernel/tasking/synchronisation.o
 .rodata.mutex_unlock.str1.1
                0x00137ef0       0x10 object_files/kernel/tasking/synchronisation.o
 .rodata.mutex_unlock.str1.4
                0x00137f00       0x21 object_files/kernel/tasking/synchronisation.o
 .rodata.create_task.str1.1
                0x00137f21       0x38 object_files/kernel/tasking/task.o
 .rodata.create_cprocess.str1.1
                0x00137f59        0xd object_files/kernel/tasking/task.o
 .rodata.create_cthread.str1.1
                0x00137f66        0xf object_files/kernel/tasking/task.o
 .rodata.task_log.str1.1
                0x00137f75       0x42 object_files/kernel/tasking/task.o
 .rodata.scheduler_taskSwitch.str1.1
                0x00137fb7        0x9 object_files/kernel/tasking/scheduler.o
 .rodata.scheduler_log.str1.1
                0x00137fc0       0x3a object_files/kernel/tasking/scheduler.o
 *fill*         0x00137ffa        0x2 
 .rodata.scheduler_log.str1.4
                0x00137ffc       0x98 object_files/kernel/tasking/scheduler.o
 .rodata.blocker
                0x00138094       0x1c object_files/kernel/tasking/scheduler.o
                0x00138094                blocker
 .rodata.vm86_sensitiveOpcodehandler
                0x001380b0      0x240 object_files/kernel/tasking/vm86.o
 .rodata.vm86_initPageDirectory.str1.1
                0x001382f0       0x38 object_files/kernel/tasking/vm86.o
 .rodata.vm86_executeSync.str1.1
                0x00138328        0x5 object_files/kernel/tasking/vm86.o
 .rodata.hc_constructPort.str1.1
                0x0013832d       0x34 object_files/kernel/usb/usb_hc.o
 *fill*         0x00138361        0x3 
 .rodata.hc_constructPort.str1.4
                0x00138364       0x26 object_files/kernel/usb/usb_hc.o
 *fill*         0x0013838a        0x2 
 .rodata.usb_constructTransfer.str1.4
                0x0013838c       0x52 object_files/kernel/usb/usb_hc.o
 .rodata.usb_setupTransaction.str1.1
                0x001383de       0x12 object_files/kernel/usb/usb_hc.o
 .rodata.usb_setupTransaction.str1.4
                0x001383f0       0x51 object_files/kernel/usb/usb_hc.o
 *fill*         0x00138441        0x3 
 .rodata.usb_inTransaction.str1.4
                0x00138444       0x4e object_files/kernel/usb/usb_hc.o
 *fill*         0x00138492        0x2 
 .rodata.usb_outTransaction.str1.4
                0x00138494       0x4f object_files/kernel/usb/usb_hc.o
 *fill*         0x001384e3        0x1 
 .rodata.usb_scheduleTransfer.str1.4
                0x001384e4       0x51 object_files/kernel/usb/usb_hc.o
 *fill*         0x00138535        0x3 
 .rodata.usb_pollTransfer.str1.4
                0x00138538       0x4d object_files/kernel/usb/usb_hc.o
 *fill*         0x00138585        0x3 
 .rodata.usb_waitForTransfer.str1.4
                0x00138588       0x50 object_files/kernel/usb/usb_hc.o
 .rodata.usb_destructTransfer.str1.4
                0x001385d8       0x51 object_files/kernel/usb/usb_hc.o
 .rodata.hc_constructRootPorts.str1.1
                0x00138629        0xa object_files/kernel/usb/usb_hc.o
 .rodata.hc_addPort.str1.1
                0x00138633        0x8 object_files/kernel/usb/usb_hc.o
 .rodata.ehci_handler.str1.1
                0x0013863b       0x43 object_files/kernel/usb/ehci.o
 *fill*         0x0013867e        0x2 
 .rodata.ehci_handler.str1.4
                0x00138680       0x60 object_files/kernel/usb/ehci.o
 .rodata.ehci_showUSBSTS.isra.1.str1.1
                0x001386e0       0x4f object_files/kernel/usb/ehci.o
 .rodata.ehci_checkPortLineStatus.str1.1
                0x0013872f       0x3c object_files/kernel/usb/ehci.o
 *fill*         0x0013876b        0x1 
 .rodata.ehci_checkPortLineStatus.str1.4
                0x0013876c       0x5b object_files/kernel/usb/ehci.o
 .rodata.ehci_portCheck.str1.1
                0x001387c7       0x1d object_files/kernel/usb/ehci.o
 .rodata.ehci_portCheck.str1.4
                0x001387e4       0x2a object_files/kernel/usb/ehci.o
 .rodata.ehci_start.str1.1
                0x0013880e       0x6e object_files/kernel/usb/ehci.o
 .rodata.ehci_start.str1.4
                0x0013887c       0x8f object_files/kernel/usb/ehci.o
 .rodata.ehci_install.str1.1
                0x0013890b        0xd object_files/kernel/usb/ehci.o
 .rodata.ehci_setupTransfer.str1.1
                0x00138918       0x3f object_files/kernel/usb/ehci.o
 *fill*         0x00138957        0x1 
 .rodata.ehci_setupTransfer.str1.4
                0x00138958       0x42 object_files/kernel/usb/ehci.o
 .rodata.ehci_setupTransaction.str1.1
                0x0013899a       0x13 object_files/kernel/usb/ehci.o
 .rodata.ehci_waitForTransfer.str1.1
                0x001389ad       0x42 object_files/kernel/usb/ehci.o
 *fill*         0x001389ef        0x1 
 .rodata.ehci_waitForTransfer.str1.4
                0x001389f0       0xc0 object_files/kernel/usb/ehci.o
 .rodata.ehci_destructTransfer.str1.4
                0x00138ab0       0x28 object_files/kernel/usb/ehci.o
 .rodata.ehci_destructTransfer.str1.1
                0x00138ad8       0x12 object_files/kernel/usb/ehci.o
 .rodata.str1.1
                0x00138aea       0x1e object_files/kernel/usb/ehci.o
 .rodata.state.2921
                0x00138b08       0x10 object_files/kernel/usb/ehci.o
 .rodata.usb_clearHubFeature.str1.4
                0x00138b18       0x2b object_files/kernel/usb/usb_hub.o
 *fill*         0x00138b43        0x1 
 .rodata.usb_clearPortFeature.str1.4
                0x00138b44       0x2c object_files/kernel/usb/usb_hub.o
 .rodata.usb_clearTTBuffer.str1.4
                0x00138b70       0x29 object_files/kernel/usb/usb_hub.o
 *fill*         0x00138b99        0x3 
 .rodata.usb_getHubStatus.str1.4
                0x00138b9c       0x28 object_files/kernel/usb/usb_hub.o
 .rodata.usb_getPortStatus.str1.4
                0x00138bc4       0x29 object_files/kernel/usb/usb_hub.o
 *fill*         0x00138bed        0x3 
 .rodata.usb_isHubPortConnected.str1.4
                0x00138bf0       0x3e object_files/kernel/usb/usb_hub.o
 *fill*         0x00138c2e        0x2 
 .rodata.usb_getTTState.str1.4
                0x00138c30       0x26 object_files/kernel/usb/usb_hub.o
 *fill*         0x00138c56        0x2 
 .rodata.usb_resetTT.str1.4
                0x00138c58       0x23 object_files/kernel/usb/usb_hub.o
 *fill*         0x00138c7b        0x1 
 .rodata.usb_setHubDescriptor.str1.4
                0x00138c7c       0x2c object_files/kernel/usb/usb_hub.o
 .rodata.usb_setHubFeature.str1.4
                0x00138ca8       0x29 object_files/kernel/usb/usb_hub.o
 *fill*         0x00138cd1        0x3 
 .rodata.usb_setPortFeature.str1.4
                0x00138cd4       0x36 object_files/kernel/usb/usb_hub.o
 .rodata.usb_setupHub.str1.1
                0x00138d0a       0x49 object_files/kernel/usb/usb_hub.o
 *fill*         0x00138d53        0x1 
 .rodata.usb_setupHub.str1.4
                0x00138d54       0x73 object_files/kernel/usb/usb_hub.o
 *fill*         0x00138dc7        0x1 
 .rodata.usb_stopTT.str1.4
                0x00138dc8       0x22 object_files/kernel/usb/usb_hub.o
 *fill*         0x00138dea        0x2 
 .rodata.usb_hubWatchdog.str1.4
                0x00138dec       0x65 object_files/kernel/usb/usb_hub.o
 .rodata.ohci_analyzePortStatus.str1.1
                0x00138e51       0x50 object_files/kernel/usb/ohci.o
 .rodata.ohci_handler.str1.1
                0x00138ea1       0x75 object_files/kernel/usb/ohci.o
 *fill*         0x00138f16        0x2 
 .rodata.ohci_attachSequence.str1.4
                0x00138f18       0x33 object_files/kernel/usb/ohci.o
 .rodata.ohci_attachSequence.str1.1
                0x00138f4b       0x54 object_files/kernel/usb/ohci.o
 *fill*         0x00138f9f        0x1 
 .rodata.ohci_start.str1.4
                0x00138fa0       0xcb object_files/kernel/usb/ohci.o
 .rodata.ohci_start.str1.1
                0x0013906b       0x63 object_files/kernel/usb/ohci.o
 .rodata.ohci_appendTDtoED.isra.3.str1.1
                0x001390ce        0x9 object_files/kernel/usb/ohci.o
 .rodata.ohci_install.str1.1
                0x001390d7        0xd object_files/kernel/usb/ohci.o
 .rodata.ohci_setupTransfer.str1.1
                0x001390e4       0x11 object_files/kernel/usb/ohci.o
 .rodata.ohci_setupTransaction.str1.1
                0x001390f5       0x24 object_files/kernel/usb/ohci.o
 .rodata.ohci_inTransaction.str1.1
                0x00139119       0x30 object_files/kernel/usb/ohci.o
 .rodata.ohci_pollTransfer.str1.1
                0x00139149        0xa object_files/kernel/usb/ohci.o
 .rodata.ohci_waitForTransfer.str1.1
                0x00139153       0x10 object_files/kernel/usb/ohci.o
 .rodata.ohci_destructTransfer.str1.1
                0x00139163       0x12 object_files/kernel/usb/ohci.o
 *fill*         0x00139175        0x3 
 .rodata.str1.4
                0x00139178      0x20d object_files/kernel/usb/ohci.o
 .rodata.str1.1
                0x00139385        0xf object_files/kernel/usb/ohci.o
 *fill*         0x00139394        0xc 
 .rodata.texts.3005
                0x001393a0       0x40 object_files/kernel/usb/ohci.o
 .rodata.uhci_showStatusbyteTD.str1.1
                0x001393e0       0x7c object_files/kernel/usb/uhci.o
 .rodata.uhci_handler.str1.1
                0x0013945c       0x6e object_files/kernel/usb/uhci.o
 *fill*         0x001394ca        0x2 
 .rodata.uhci_resetPort.str1.4
                0x001394cc       0x28 object_files/kernel/usb/uhci.o
 .rodata.uhci_analysePortStatus.str1.1
                0x001394f4       0x36 object_files/kernel/usb/uhci.o
 *fill*         0x0013952a        0x2 
 .rodata.uhci_start.str1.4
                0x0013952c       0xaf object_files/kernel/usb/uhci.o
 .rodata.uhci_start.str1.1
                0x001395db       0x53 object_files/kernel/usb/uhci.o
 .rodata.uhci_allocTD.isra.1.constprop.4.str1.1
                0x0013962e        0x7 object_files/kernel/usb/uhci.o
 .rodata.uhci_createTD_IO.constprop.2.str1.1
                0x00139635        0xe object_files/kernel/usb/uhci.o
 .rodata.uhci_install.str1.1
                0x00139643        0xd object_files/kernel/usb/uhci.o
 .rodata.uhci_pollDisk.str1.1
                0x00139650       0x1c object_files/kernel/usb/uhci.o
 .rodata.uhci_setupTransfer.str1.1
                0x0013966c       0x12 object_files/kernel/usb/uhci.o
 .rodata.uhci_waitForTransfer.str1.1
                0x0013967e       0x22 object_files/kernel/usb/uhci.o
 .rodata.xhci_showStates.str1.4
                0x001396a0       0x30 object_files/kernel/usb/xhci.o
 .rodata.xhci_showStates.str1.1
                0x001396d0       0x19 object_files/kernel/usb/xhci.o
 .rodata.xhci_resetSlot.str1.1
                0x001396e9       0x10 object_files/kernel/usb/xhci.o
 *fill*         0x001396f9        0x3 
 .rodata.xhci_ringDoorbellAndWait_HC.str1.4
                0x001396fc       0x32 object_files/kernel/usb/xhci.o
 *fill*         0x0013972e        0x2 
 .rodata.showCounter.str1.4
                0x00139730       0x33 object_files/kernel/usb/xhci.o
 .rodata.showCounter.str1.1
                0x00139763       0x15 object_files/kernel/usb/xhci.o
 .rodata.xhci_enqueueCommand.str1.4
                0x00139778       0x23 object_files/kernel/usb/xhci.o
 .rodata.xhci_Enable_Slot_Command.str1.1
                0x0013979b       0x1a object_files/kernel/usb/xhci.o
 *fill*         0x001397b5        0x3 
 .rodata.xhci_Address_Device_Command.str1.4
                0x001397b8       0x24 object_files/kernel/usb/xhci.o
 .rodata.xhci_detectDevice.str1.4
                0x001397dc      0x136 object_files/kernel/usb/xhci.o
 .rodata.xhci_detectDevice.str1.1
                0x00139912       0x2c object_files/kernel/usb/xhci.o
 .rodata.xhci_portCheck.str1.1
                0x0013993e       0x2f object_files/kernel/usb/xhci.o
 *fill*         0x0013996d        0x3 
 .rodata.xhci_portCheck.str1.4
                0x00139970       0x1f object_files/kernel/usb/xhci.o
 *fill*         0x0013998f        0x1 
 .rodata.xhci_enqueueTransfer.str1.4
                0x00139990       0x35 object_files/kernel/usb/xhci.o
 .rodata.xhci_showStatus.isra.6.str1.1
                0x001399c5       0xd6 object_files/kernel/usb/xhci.o
 *fill*         0x00139a9b        0x1 
 .rodata.xhci_showStatus.isra.6.str1.4
                0x00139a9c       0x28 object_files/kernel/usb/xhci.o
 .rodata.xhci_start.str1.4
                0x00139ac4       0xf7 object_files/kernel/usb/xhci.o
 .rodata.xhci_start.str1.1
                0x00139bbb       0xe8 object_files/kernel/usb/xhci.o
 .rodata.xhci_handler.str1.1
                0x00139ca3       0x41 object_files/kernel/usb/xhci.o
 .rodata.xhci_handler.str1.4
                0x00139ce4      0x1ad object_files/kernel/usb/xhci.o
 .rodata.xhci_install.str1.1
                0x00139e91       0x26 object_files/kernel/usb/xhci.o
 *fill*         0x00139eb7        0x1 
 .rodata.xhci_setupTransaction.str1.4
                0x00139eb8       0x7d object_files/kernel/usb/xhci.o
 .rodata.xhci_setupTransaction.str1.1
                0x00139f35       0x13 object_files/kernel/usb/xhci.o
 .rodata.xhci_inTransaction.str1.1
                0x00139f48        0xe object_files/kernel/usb/xhci.o
 .rodata.xhci_scheduleTransfer.str1.1
                0x00139f56       0x10 object_files/kernel/usb/xhci.o
 *fill*         0x00139f66        0x2 
 .rodata.xhci_waitForTransfer.str1.4
                0x00139f68       0x31 object_files/kernel/usb/xhci.o
 .rodata.xhci_waitForTransfer.str1.1
                0x00139f99       0x11 object_files/kernel/usb/xhci.o
 *fill*         0x00139faa        0x2 
 .rodata.xhci_pollDisk.str1.4
                0x00139fac       0x23 object_files/kernel/usb/xhci.o
 .rodata.xhci_pollDisk.str1.1
                0x00139fcf       0x1a object_files/kernel/usb/xhci.o
 .rodata.str1.1
                0x00139fe9      0x303 object_files/kernel/usb/xhci.o
 *fill*         0x0013a2ec       0x14 
 .rodata.completionCodes.3563
                0x0013a300       0x94 object_files/kernel/usb/xhci.o
 .rodata.allocQTD.str1.1
                0x0013a394        0x4 object_files/kernel/usb/ehciQHqTD.o
 .rodata.allocQTDbuffer.str1.1
                0x0013a398        0xb object_files/kernel/usb/ehciQHqTD.o
 *fill*         0x0013a3a3        0x1 
 .rodata.enableAsyncScheduler.isra.0.str1.4
                0x0013a3a4       0x2c object_files/kernel/usb/ehciQHqTD.o
 .rodata.ehci_showStatusbyteQTD.str1.4
                0x0013a3d0       0xee object_files/kernel/usb/ehciQHqTD.o
 .rodata.ehci_showStatusbyteQTD.str1.1
                0x0013a4be       0x43 object_files/kernel/usb/ehciQHqTD.o
 .rodata.ehci_initializeAsyncScheduler.str1.1
                0x0013a501        0x8 object_files/kernel/usb/ehciQHqTD.o
 .rodata.ehci_addToAsyncScheduler.str1.1
                0x0013a509       0x10 object_files/kernel/usb/ehciQHqTD.o
 .rodata.ehci_initializePeriodicList.str1.1
                0x0013a519       0x13 object_files/kernel/usb/ehciQHqTD.o
 .rodata.ehci_addToPeriodicScheduler.str1.4
                0x0013a52c      0x1a8 object_files/kernel/usb/ehciQHqTD.o
 .rodata.ehci_createiTDchain.str1.1
                0x0013a6d4        0xb object_files/kernel/usb/ehciQHqTD.o
 .rodata.ehci_show_iTD.str1.1
                0x0013a6df       0x36 object_files/kernel/usb/ehciQHqTD.o
 *fill*         0x0013a715        0x3 
 .rodata.ehci_show_iTD.str1.4
                0x0013a718       0x3f object_files/kernel/usb/ehciQHqTD.o
 .rodata.usb_createDevice.str1.1
                0x0013a757       0x1c object_files/kernel/usb/usb.o
 .rodata.usb_getDeviceDescriptor.str1.1
                0x0013a773       0x59 object_files/kernel/usb/usb.o
 .rodata.usb_getDeviceDescriptor.str1.4
                0x0013a7cc       0x4a object_files/kernel/usb/usb.o
 .rodata.usb_getConfigDescriptor.str1.1
                0x0013a816       0x33 object_files/kernel/usb/usb.o
 *fill*         0x0013a849        0x3 
 .rodata.usb_setupDevice.str1.4
                0x0013a84c       0x5f object_files/kernel/usb/usb.o
 .rodata.usb_setupDevice.str1.1
                0x0013a8ab       0x1a object_files/kernel/usb/usb.o
 .rodata.usb_getStringDescriptor.str1.1
                0x0013a8c5       0x72 object_files/kernel/usb/usb.o
 *fill*         0x0013a937        0x1 
 .rodata.usb_getStringDescriptor
                0x0013a938       0x64 object_files/kernel/usb/usb.o
 .rodata.array_create.str1.1
                0x0013a99c        0x8 object_files/kernel/util/array.o
 .rodata.array_resize_.str1.1
                0x0013a9a4        0xc object_files/kernel/util/array.o
 .rodata.memshow.str1.1
                0x0013a9b0        0x4 object_files/kernel/util/util.o
 .rodata.waitForKeyStroke.str1.4
                0x0013a9b4       0x44 object_files/kernel/util/util.o
 .rodata.vsnprintf
                0x0013a9f8      0x154 object_files/kernel/util/util.o
 .rodata.systemControl.str1.1
                0x0013ab4c       0x30 object_files/kernel/util/util.o
 .rodata.printStackTrace.str1.1
                0x0013ab7c       0x25 object_files/kernel/util/util.o
 *fill*         0x0013aba1        0x3 
 .rodata.printStackTrace.str1.4
                0x0013aba4       0x23 object_files/kernel/util/util.o
 *fill*         0x0013abc7        0x1 
 .rodata.panic_assert.str1.4
                0x0013abc8       0x47 object_files/kernel/util/util.o
 *fill*         0x0013ac0f        0x1 
 .rodata.cst4   0x0013ac10       0x20 object_files/kernel/util/util.o
 .rodata.todolist_create.str1.1
                0x0013ac30        0x9 object_files/kernel/util/todo_list.o
 .rodata.todoList_add.str1.1
                0x0013ac39       0x19 object_files/kernel/util/todo_list.o
 .rodata.list_create.str1.1
                0x0013ac52        0x5 object_files/kernel/util/list.o
 .rodata.list_append.str1.1
                0x0013ac57        0xc object_files/kernel/util/list.o
 .rodata.list_show.str1.1
                0x0013ac63       0x20 object_files/kernel/util/list.o
 .rodata.takeOut.str1.1
                0x0013ac83       0x18 object_files/kernel/util/ring.o
 .rodata.ring_insert.str1.1
                0x0013ac9b        0xd object_files/kernel/util/ring.o
 .rodata.ring_move.str1.1
                0x0013aca8       0x25 object_files/kernel/util/ring.o
 .rodata.video_createDevice.str1.1
                0x0013accd        0xe object_files/kernel/video/videomanager.o
 .rodata.video_test.str1.1
                0x0013acdb       0xf9 object_files/kernel/video/videomanager.o
 .rodata.video_test.str1.4
                0x0013add4      0x15c object_files/kernel/video/videomanager.o
 .rodata.video_test
                0x0013af30       0x84 object_files/kernel/video/videomanager.o
 .rodata.str1.1
                0x0013afb4       0x15 object_files/kernel/video/videomanager.o
 *fill*         0x0013afc9       0x17 
 .rodata.video_drivers
                0x0013afe0       0xa8 object_files/kernel/video/videomanager.o
                0x0013afe0                video_drivers
 .rodata.windowManager_init.str1.1
                0x0013b088       0x17 object_files/kernel/video/gui_window.o
 .rodata.window_create.str1.1
                0x0013b09f        0x9 object_files/kernel/video/gui_window.o
 .rodata.WINDOW_COLOUR_FOCUS_TOPBAR
                0x0013b0a8        0x4 object_files/kernel/video/gui_window.o
 .rodata.WINDOW_COLOUR_TOPBAR
                0x0013b0ac        0x4 object_files/kernel/video/gui_window.o
 .rodata.WINDOW_COLOUR_BORDER
                0x0013b0b0        0x4 object_files/kernel/video/gui_window.o
 .rodata.WINDOW_COLOUR_BACKGROUND
                0x0013b0b4        0x4 object_files/kernel/video/gui_window.o
 .rodata.usb_vidshowStreamingControlParameterBlock.str1.4
                0x0013b0b8       0x44 object_files/kernel/video/usb_video.o
 .rodata.usb_vidshowStreamingControlParameterBlock.str1.1
                0x0013b0fc      0x12c object_files/kernel/video/usb_video.o
 .rodata.usb_vidVideoControlError.constprop.6.str1.1
                0x0013b228       0x2b object_files/kernel/video/usb_video.o
 *fill*         0x0013b253        0x1 
 .rodata.usb_vidVideoControlError.constprop.6.str1.4
                0x0013b254       0x31 object_files/kernel/video/usb_video.o
 *fill*         0x0013b285        0x3 
 .rodata.usb_vidPowerMode.constprop.4.str1.4
                0x0013b288       0x22 object_files/kernel/video/usb_video.o
 .rodata.usb_vidPowerMode.constprop.4.str1.1
                0x0013b2aa       0x10 object_files/kernel/video/usb_video.o
 *fill*         0x0013b2ba        0x2 
 .rodata.usb_vidScanningMode.constprop.3.str1.4
                0x0013b2bc       0x25 object_files/kernel/video/usb_video.o
 *fill*         0x0013b2e1        0x3 
 .rodata.usb_vidStillProbeControl.str1.4
                0x0013b2e4       0x23 object_files/kernel/video/usb_video.o
 *fill*         0x0013b307        0x1 
 .rodata.usb_vidCommitControl.str1.4
                0x0013b308       0x1f object_files/kernel/video/usb_video.o
 .rodata.usb_vidProbeControl.str1.1
                0x0013b327       0x36 object_files/kernel/video/usb_video.o
 .rodata.saveYUYV.constprop.8.str1.1
                0x0013b35d       0x43 object_files/kernel/video/usb_video.o
 .rodata.saveYUYV.constprop.8.str1.4
                0x0013b3a0       0x22 object_files/kernel/video/usb_video.o
 .rodata.usb_setupVideo.str1.1
                0x0013b3c2      0x693 object_files/kernel/video/usb_video.o
 *fill*         0x0013ba55        0x3 
 .rodata.usb_setupVideo.str1.4
                0x0013ba58      0x7e3 object_files/kernel/video/usb_video.o
 *fill*         0x0013c23b        0x1 
 .rodata.usb_destroyVideo.str1.4
                0x0013c23c       0x25 object_files/kernel/video/usb_video.o
 .rodata.str1.1
                0x0013c261       0x99 object_files/kernel/video/usb_video.o
 *fill*         0x0013c2fa        0x6 
 .rodata.errors.3000
                0x0013c300       0x20 object_files/kernel/video/usb_video.o
 .rodata.gui_start.str1.1
                0x0013c320       0x57 object_files/kernel/video/gui.o
 .rodata.console_init.str1.1
                0x0013c377       0x1b object_files/kernel/video/console.o
 .rodata.vprintf.str1.1
                0x0013c392       0x50 object_files/kernel/video/console.o
 *fill*         0x0013c3e2        0x2 
 .rodata.vprintf
                0x0013c3e4      0x154 object_files/kernel/video/console.o
 .rodata.AsciiToCP437
                0x0013c538      0x1f4 object_files/kernel/video/video.o
 .rodata.kprintf
                0x0013c72c      0x154 object_files/kernel/video/video.o
 .rodata.refreshScreen.str1.1
                0x0013c880       0x2b object_files/kernel/video/video.o
 .rodata.takeScreenshot.str1.1
                0x0013c8ab       0x1f object_files/kernel/video/video.o
 .rodata.saveScreenshot.str1.1
                0x0013c8ca       0x12 object_files/kernel/video/video.o
 .rodata.saveScreenshot.str1.4
                0x0013c8dc       0x22 object_files/kernel/video/video.o
 .rodata.vbe_detect.str1.1
                0x0013c8fe        0xb object_files/kernel/video/vbe.o
 .rodata.vbe_createDevice.str1.1
                0x0013c909       0x12 object_files/kernel/video/vbe.o
 .rodata.vbe_createModeList.str1.1
                0x0013c91b        0xc object_files/kernel/video/vbe.o
 .rodata.vbe_enterVideoMode.str1.1
                0x0013c927        0xc object_files/kernel/video/vbe.o
 .rodata.vbe_debug.str1.1
                0x0013c933       0x87 object_files/kernel/video/vbe.o
 *fill*         0x0013c9ba        0x2 
 .rodata.vbe_debug.str1.4
                0x0013c9bc       0x20 object_files/kernel/video/vbe.o
 .rodata.getUncompressedPixelData.str1.1
                0x0013c9dc        0x6 object_files/kernel/video/videoutils.o
 .rodata.renderBuffer_create.str1.1
                0x0013c9e2       0x26 object_files/kernel/video/videoutils.o
 .rodata.renderBuffer_setPixel.str1.4
                0x0013ca08       0x27 object_files/kernel/video/videoutils.o
 .rodata.renderBuffer_flipScreen.str1.1
                0x0013ca2f       0x18 object_files/kernel/video/videoutils.o
 *fill*         0x0013ca47        0x1 
 .rodata.white  0x0013ca48        0x4 object_files/kernel/video/videoutils.o
                0x0013ca48                white
 .rodata.black  0x0013ca4c        0x4 object_files/kernel/video/videoutils.o
                0x0013ca4c                black
 *fill*         0x0013ca50       0x10 
 .rodata.font   0x0013ca60     0x48a0 object_files/kernel/video/videoutils.o
 .rodata.cst16  0x00141300       0x50 object_files/kernel/video/videoutils.o
 .rodata.button_create.str1.1
                0x00141350        0xe object_files/kernel/video/gui_button.o
 *fill*         0x0014135e        0x2 
 .rodata.BUTTON_COLOUR_BORDER
                0x00141360        0x4 object_files/kernel/video/gui_button.o
 .rodata.BUTTON_COLOUR
                0x00141364        0x4 object_files/kernel/video/gui_button.o
                0x00141368                _ro_end = .
 *(.rodata)

.data           0x00141380     0x296e
 *(.data*)
 .data          0x00141380        0x0 object_files/kernel/ckernel.o
 .data          0x00141380        0x0 object_files/kernel/power_management.o
 .data.powmgmt_systems
                0x00141380       0x18 object_files/kernel/power_management.o
 .data          0x00141398        0x0 object_files/kernel/pe.o
 .data          0x00141398        0x0 object_files/kernel/executable.o
 .data          0x00141398        0x0 object_files/kernel/userheap.o
 .data          0x00141398        0x0 object_files/kernel/events.o
 .data          0x00141398        0x0 object_files/kernel/syscall.o
 .data          0x00141398        0x0 object_files/kernel/dma.o
 .data          0x00141398        0x0 object_files/kernel/paging.o
 .data.head.2516
                0x00141398        0x4 object_files/kernel/paging.o
 .data.firstFreeDWORD
                0x0014139c        0x4 object_files/kernel/paging.o
 .data          0x001413a0        0x0 object_files/kernel/timer.o
 .data          0x001413a0        0x0 object_files/kernel/cpu.o
 .data          0x001413a0        0x0 object_files/kernel/ipc.o
 .data.root     0x001413a0       0x20 object_files/kernel/ipc.o
 .data          0x001413c0        0x0 object_files/kernel/serial.o
 .data          0x001413c0        0x0 object_files/kernel/descriptor_tables.o
 .data          0x001413c0        0x0 object_files/kernel/cmos.o
 .data          0x001413c0        0x0 object_files/kernel/elf.o
 .data          0x001413c0        0x0 object_files/kernel/irq.o
 .data          0x001413c0        0x0 object_files/kernel/pci.o
 .data          0x001413c0        0x0 object_files/kernel/log.o
 .data.log_secondaryPos
                0x001413c0        0x4 object_files/kernel/log.o
 .data.log_secondaryDevice
                0x001413c4        0x4 object_files/kernel/log.o
                0x001413c4                log_secondaryDevice
 .data.log_secondaryLevel
                0x001413c8        0x4 object_files/kernel/log.o
 .data.log_screenLevel
                0x001413cc        0x4 object_files/kernel/log.o
 .data.log_screen
                0x001413d0        0x1 object_files/kernel/log.o
                0x001413d0                log_screen
 .data          0x001413d1        0x0 object_files/kernel/time.o
 *fill*         0x001413d1        0x3 
 .data.pct.1217
                0x001413d4        0x8 object_files/kernel/time.o
 .data          0x001413dc        0x0 object_files/kernel/apic.o
 .data          0x001413dc        0x0 object_files/kernel/kheap.o
 .data.nextPlacement.1905
                0x001413dc        0x4 object_files/kernel/kheap.o
 .data.firstFreeAddr
                0x001413e0        0x4 object_files/kernel/kheap.o
 .data          0x001413e4        0x0 object_files/kernel/acpi/parser.o
 .data.acpi_baseParsers
                0x001413e4       0x18 object_files/kernel/acpi/parser.o
                0x001413e4                acpi_baseParsers
 .data          0x001413fc        0x0 object_files/kernel/acpi/acpi.o
 .data          0x001413fc        0x0 object_files/kernel/acpi/fadt.o
 .data          0x001413fc        0x0 object_files/kernel/acpi/madt.o
 .data          0x001413fc        0x0 object_files/kernel/audio/wav.o
 .data          0x001413fc        0x0 object_files/kernel/audio/sb16.o
 .data          0x001413fc        0x0 object_files/kernel/audio/ac97_intel.o
 .data          0x001413fc        0x0 object_files/kernel/audio/audio.o
 .data          0x001413fc        0x0 object_files/kernel/audio/sys_speaker.o
 .data          0x001413fc        0x0 object_files/kernel/audio/ac97_via.o
 .data          0x001413fc        0x0 object_files/kernel/cdi/cdi.o
 .data          0x001413fc        0x0 object_files/kernel/cdi/cdi_mempool.o
 .data          0x001413fc        0x0 object_files/kernel/cdi/cdi_net.o
 .data          0x001413fc        0x0 object_files/kernel/cdi/cdi_lists.o
 .data          0x001413fc        0x0 object_files/kernel/cdi/cdi_mem.o
 .data          0x001413fc        0x0 object_files/kernel/cdi/cdi_scsi.o
 .data          0x001413fc        0x0 object_files/kernel/cdi/cdi_audio.o
 .data          0x001413fc        0x0 object_files/kernel/cdi/cdi_cache.o
 .data          0x001413fc        0x0 object_files/kernel/cdi/cdi_dma.o
 .data          0x001413fc        0x0 object_files/kernel/cdi/cdi_usb.o
 .data          0x001413fc        0x0 object_files/kernel/cdi/cdi_storage.o
 .data          0x001413fc        0x0 object_files/kernel/cdi/cdi_pci.o
 .data          0x001413fc        0x0 object_files/kernel/cdi/cdi_misc.o
 .data          0x001413fc        0x0 object_files/kernel/cdi/cdi_fs.o
 .data          0x001413fc        0x0 object_files/kernel/cdi/cdi_bios.o
 .data          0x001413fc        0x0 object_files/kernel/filesystem/fsmanager.o
 .data          0x001413fc        0x0 object_files/kernel/filesystem/fat.o
 .data          0x001413fc        0x0 object_files/kernel/filesystem/ramdisk.o
 *fill*         0x001413fc        0x4 
 .data.RAMdisk.2155
                0x00141400       0x34 object_files/kernel/filesystem/ramdisk.o
 .data.RAMport.2154
                0x00141434       0x1c object_files/kernel/filesystem/ramdisk.o
 .data.shellNode
                0x00141450       0x1c object_files/kernel/filesystem/ramdisk.o
 .data          0x0014146c        0x0 object_files/kernel/filesystem/fat12.o
 .data          0x0014146c        0x0 object_files/kernel/hid/keyboard.o
 .data.byteCounter.2207
                0x0014146c        0x1 object_files/kernel/hid/keyboard.o
 .data          0x0014146d        0x0 object_files/kernel/hid/mouse.o
 .data          0x0014146d        0x0 object_files/kernel/hid/usb_hid.o
 .data          0x0014146d        0x0 object_files/kernel/netprotocol/udp.o
 .data          0x0014146d        0x0 object_files/kernel/netprotocol/icmp.o
 .data          0x0014146d        0x0 object_files/kernel/netprotocol/ipv4.o
 .data          0x0014146d        0x0 object_files/kernel/netprotocol/ipv6.o
 .data          0x0014146d        0x0 object_files/kernel/netprotocol/ethernet.o
 .data          0x0014146d        0x0 object_files/kernel/netprotocol/arp.o
 .data          0x0014146d        0x0 object_files/kernel/netprotocol/tcp.o
 *fill*         0x0014146d        0x1 
 .data.ID.2809  0x0014146e        0x2 object_files/kernel/netprotocol/tcp.o
 .data          0x00141470        0x0 object_files/kernel/netprotocol/dhcp.o
 .data.xid      0x00141470        0x4 object_files/kernel/netprotocol/dhcp.o
 .data          0x00141474        0x0 object_files/kernel/network/e1000.o
 .data.eerd_safe.2392
                0x00141474        0x4 object_files/kernel/network/e1000.o
 *fill*         0x00141478        0x8 
 .data.models   0x00141480       0x30 object_files/kernel/network/e1000.o
 .data          0x001414b0        0x0 object_files/kernel/network/netutils.o
 .data          0x001414b0        0x0 object_files/kernel/network/network.o
 .data          0x001414b0        0x0 object_files/kernel/network/rtl8168.o
 .data          0x001414b0        0x0 object_files/kernel/network/e1000_cdi.o
 *fill*         0x001414b0       0x10 
 .data.driver   0x001414c0       0x28 object_files/kernel/network/e1000_cdi.o
 .data          0x001414e8        0x0 object_files/kernel/network/pcnet.o
 .data          0x001414e8        0x0 object_files/kernel/network/rtl8139.o
 .data          0x001414e8        0x0 object_files/kernel/storage/hdd.o
 .data          0x001414e8        0x0 object_files/kernel/storage/ata.o
 .data          0x001414e8        0x0 object_files/kernel/storage/usb_msd.o
 .data          0x001414e8        0x0 object_files/kernel/storage/devicemanager.o
 .data          0x001414e8        0x0 object_files/kernel/storage/flpydsk.o
 .data          0x001414e8        0x0 object_files/kernel/tasking/synchronisation.o
 .data          0x001414e8        0x0 object_files/kernel/tasking/task.o
 .data.next_pid
                0x001414e8        0x4 object_files/kernel/tasking/task.o
 .data.currentTask
                0x001414ec        0x4 object_files/kernel/tasking/task.o
                0x001414ec                currentTask
 *fill*         0x001414f0       0x10 
 .data.kernelTask
                0x00141500       0x6c object_files/kernel/tasking/task.o
                0x00141500                kernelTask
 .data          0x0014156c        0x0 object_files/kernel/tasking/scheduler.o
 .data          0x0014156c        0x0 object_files/kernel/tasking/vm86.o
 .data          0x0014156c        0x0 object_files/kernel/usb/usb_hc.o
 .data          0x0014156c        0x0 object_files/kernel/usb/ehci.o
 .data          0x0014156c        0x0 object_files/kernel/usb/usb_hub.o
 .data          0x0014156c        0x0 object_files/kernel/usb/ohci.o
 .data          0x0014156c        0x0 object_files/kernel/usb/uhci.o
 .data          0x0014156c        0x0 object_files/kernel/usb/xhci.o
 .data          0x0014156c        0x0 object_files/kernel/usb/ehciQHqTD.o
 .data          0x0014156c        0x0 object_files/kernel/usb/usb.o
 .data          0x0014156c        0x0 object_files/kernel/util/array.o
 .data          0x0014156c        0x0 object_files/kernel/util/util.o
 .data          0x0014156c        0x0 object_files/kernel/util/todo_list.o
 .data          0x0014156c        0x0 object_files/kernel/util/list.o
 .data          0x0014156c        0x0 object_files/kernel/util/ring.o
 .data          0x0014156c        0x0 object_files/kernel/video/videomanager.o
 .data          0x0014156c        0x0 object_files/kernel/video/gui_window.o
 .data          0x0014156c        0x0 object_files/kernel/video/usb_video.o
 .data.n.2922   0x0014156c        0x4 object_files/kernel/video/usb_video.o
 .data          0x00141570        0x0 object_files/kernel/video/gui.o
 .data          0x00141570        0x0 object_files/kernel/video/console.o
 .data.scroll_flag
                0x00141570        0x1 object_files/kernel/video/console.o
 *fill*         0x00141571        0x3 
 .data.console_displayed
                0x00141574        0x4 object_files/kernel/video/console.o
                0x00141574                console_displayed
 .data.console_current
                0x00141578        0x4 object_files/kernel/video/console.o
                0x00141578                console_current
 *fill*         0x0014157c        0x4 
 .data.kernelConsole
                0x00141580     0x1f64 object_files/kernel/video/console.o
                0x00141580                kernelConsole
 .data          0x001434e4        0x0 object_files/kernel/video/video.o
 .data.vidmem   0x001434e4        0x4 object_files/kernel/video/video.o
 .data          0x001434e8        0x0 object_files/kernel/video/vbe.o
 .data          0x001434e8        0x0 object_files/kernel/video/videoutils.o
 .data          0x001434e8        0x0 object_files/kernel/video/gui_button.o
 .data          0x001434e8      0x806 object_files/kernel/interrupts.o
 *(.data)

.bss            0x00143d00     0x1904
                0x00143d00                _bss_start = .
 *(.bss*)
 .bss           0x00143d00        0x0 object_files/kernel/ckernel.o
 .bss.kernel_idleTasks
                0x00143d00       0x10 object_files/kernel/ckernel.o
                0x00143d00                kernel_idleTasks
 .bss           0x00143d10        0x0 object_files/kernel/power_management.o
 .bss.apm_pd    0x00143d10        0x4 object_files/kernel/power_management.o
 .bss           0x00143d14        0x0 object_files/kernel/pe.o
 .bss           0x00143d14        0x0 object_files/kernel/executable.o
 .bss           0x00143d14        0x0 object_files/kernel/userheap.o
 .bss           0x00143d14        0x0 object_files/kernel/events.o
 .bss           0x00143d14        0x0 object_files/kernel/syscall.o
 .bss           0x00143d14        0x0 object_files/kernel/dma.o
 .bss           0x00143d14        0x0 object_files/kernel/paging.o
 .bss.mutex.2515
                0x00143d14        0x8 object_files/kernel/paging.o
 *fill*         0x00143d1c        0x4 
 .bss.mtrr_feature.2400
                0x00143d20        0x8 object_files/kernel/paging.o
 .bss.phys_mutex
                0x00143d28        0x8 object_files/kernel/paging.o
 .bss.phys_blockingTable
                0x00143d30        0x4 object_files/kernel/paging.o
 .bss.phys_reservationTable
                0x00143d34        0x4 object_files/kernel/paging.o
 .bss.MAX_DWORDS
                0x00143d38        0x4 object_files/kernel/paging.o
 .bss.currentPageDirectory
                0x00143d3c        0x4 object_files/kernel/paging.o
                0x00143d3c                currentPageDirectory
 .bss.kernelPageDirectory
                0x00143d40        0x4 object_files/kernel/paging.o
                0x00143d40                kernelPageDirectory
 .bss           0x00143d44        0x0 object_files/kernel/timer.o
 *fill*         0x00143d44        0x4 
 .bss.timer_ticks
                0x00143d48        0x8 object_files/kernel/timer.o
 .bss.systemfrequency
                0x00143d50        0x2 object_files/kernel/timer.o
 .bss           0x00143d52        0x0 object_files/kernel/cpu.o
 *fill*         0x00143d52        0x6 
 .bss.LastRdtscValue.2208
                0x00143d58        0x8 object_files/kernel/cpu.o
 .bss.FPUTask   0x00143d60        0x4 object_files/kernel/cpu.o
                0x00143d60                FPUTask
 .bss.cpu_frequency
                0x00143d64        0x4 object_files/kernel/cpu.o
                0x00143d64                cpu_frequency
 .bss.supports_rdtsc
                0x00143d68        0x1 object_files/kernel/cpu.o
 .bss.cpuid_available
                0x00143d69        0x1 object_files/kernel/cpu.o
 .bss           0x00143d6a        0x0 object_files/kernel/ipc.o
 .bss.printLineCounter
                0x00143d6a        0x2 object_files/kernel/ipc.o
 .bss           0x00143d6c        0x0 object_files/kernel/serial.o
 *fill*         0x00143d6c       0x14 
 .bss.COMports  0x00143d80       0x30 object_files/kernel/serial.o
 .bss           0x00143db0        0x0 object_files/kernel/descriptor_tables.o
 *fill*         0x00143db0       0x10 
 .bss.tss       0x00143dc0       0x68 object_files/kernel/descriptor_tables.o
 *fill*         0x00143e28       0x18 
 .bss.gdt       0x00143e40       0x30 object_files/kernel/descriptor_tables.o
 .bss           0x00143e70        0x0 object_files/kernel/cmos.o
 .bss.mutex     0x00143e70        0x8 object_files/kernel/cmos.o
 .bss           0x00143e78        0x0 object_files/kernel/elf.o
 .bss           0x00143e78        0x0 object_files/kernel/irq.o
 *fill*         0x00143e78        0x8 
 .bss.interrupts
                0x00143e80     0x1400 object_files/kernel/irq.o
 .bss           0x00145280        0x0 object_files/kernel/pci.o
 .bss.pci_mutex
                0x00145280        0x8 object_files/kernel/pci.o
 .bss.pci_devices
                0x00145288        0x8 object_files/kernel/pci.o
                0x00145288                pci_devices
 .bss           0x00145290        0x0 object_files/kernel/log.o
 .bss.log_file  0x00145290        0x4 object_files/kernel/log.o
 .bss.log_secondaryMutex
                0x00145294        0x8 object_files/kernel/log.o
 .bss.log_secondaryBuffers
                0x0014529c        0x8 object_files/kernel/log.o
 .bss.log_secondaryMode
                0x001452a4        0x4 object_files/kernel/log.o
 .bss.log_secondaryFocus
                0x001452a8        0x4 object_files/kernel/log.o
 .bss.log_secondary
                0x001452ac        0x1 object_files/kernel/log.o
                0x001452ac                log_secondary
 *fill*         0x001452ad        0x3 
 .bss.log_screenMutex
                0x001452b0        0x8 object_files/kernel/log.o
 .bss.log_screenFocus
                0x001452b8        0x4 object_files/kernel/log.o
 .bss           0x001452bc        0x0 object_files/kernel/time.o
 .bss.dayofmonth.1218
                0x001452bc        0x3 object_files/kernel/time.o
 .bss           0x001452bf        0x0 object_files/kernel/apic.o
 *fill*         0x001452bf        0x1 
 .bss.phys_ioapic_base
                0x001452c0        0x4 object_files/kernel/apic.o
 .bss.ioapic_base
                0x001452c4        0x4 object_files/kernel/apic.o
 .bss.lapic_base
                0x001452c8        0x4 object_files/kernel/apic.o
 .bss           0x001452cc        0x0 object_files/kernel/kheap.o
 .bss.consecutiveNumber.1912
                0x001452cc        0x4 object_files/kernel/kheap.o
 .bss.mutex     0x001452d0        0x8 object_files/kernel/kheap.o
 .bss.heapSize  0x001452d8        0x4 object_files/kernel/kheap.o
 .bss.firstFreeRegion
                0x001452dc        0x4 object_files/kernel/kheap.o
 .bss.regionMaxCount
                0x001452e0        0x4 object_files/kernel/kheap.o
 .bss.regionCount
                0x001452e4        0x4 object_files/kernel/kheap.o
 .bss.regions   0x001452e8        0x4 object_files/kernel/kheap.o
 .bss           0x001452ec        0x0 object_files/kernel/acpi/parser.o
 .bss           0x001452ec        0x0 object_files/kernel/acpi/acpi.o
 .bss.parsers   0x001452ec        0x8 object_files/kernel/acpi/acpi.o
 .bss.tables    0x001452f4        0x8 object_files/kernel/acpi/acpi.o
 .bss.rdsp      0x001452fc        0x4 object_files/kernel/acpi/acpi.o
 .bss           0x00145300        0x0 object_files/kernel/acpi/fadt.o
 .bss           0x00145300        0x0 object_files/kernel/acpi/madt.o
 .bss           0x00145300        0x0 object_files/kernel/audio/wav.o
 .bss           0x00145300        0x0 object_files/kernel/audio/sb16.o
 .bss           0x00145300        0x0 object_files/kernel/audio/ac97_intel.o
 .bss           0x00145300        0x0 object_files/kernel/audio/audio.o
 .bss.firstDev  0x00145300        0x4 object_files/kernel/audio/audio.o
 .bss           0x00145304        0x0 object_files/kernel/audio/sys_speaker.o
 .bss           0x00145304        0x0 object_files/kernel/audio/ac97_via.o
 .bss           0x00145304        0x0 object_files/kernel/cdi/cdi.o
 .bss.drivers   0x00145304        0x4 object_files/kernel/cdi/cdi.o
 .bss           0x00145308        0x0 object_files/kernel/cdi/cdi_mempool.o
 .bss           0x00145308        0x0 object_files/kernel/cdi/cdi_net.o
 .bss.netcard_id
                0x00145308        0x4 object_files/kernel/cdi/cdi_net.o
 .bss           0x0014530c        0x0 object_files/kernel/cdi/cdi_lists.o
 .bss           0x0014530c        0x0 object_files/kernel/cdi/cdi_mem.o
 .bss           0x0014530c        0x0 object_files/kernel/cdi/cdi_scsi.o
 .bss           0x0014530c        0x0 object_files/kernel/cdi/cdi_audio.o
 .bss           0x0014530c        0x0 object_files/kernel/cdi/cdi_cache.o
 .bss           0x0014530c        0x0 object_files/kernel/cdi/cdi_dma.o
 .bss           0x0014530c        0x0 object_files/kernel/cdi/cdi_usb.o
 .bss           0x0014530c        0x0 object_files/kernel/cdi/cdi_storage.o
 .bss           0x0014530c        0x0 object_files/kernel/cdi/cdi_pci.o
 .bss           0x0014530c        0x0 object_files/kernel/cdi/cdi_misc.o
 .bss           0x0014530c        0x0 object_files/kernel/cdi/cdi_fs.o
 .bss.initialized.1432
                0x0014530c        0x4 object_files/kernel/cdi/cdi_fs.o
 .bss.the_one_and_only_driver
                0x00145310        0x4 object_files/kernel/cdi/cdi_fs.o
                0x00145310                the_one_and_only_driver
 .bss           0x00145314        0x0 object_files/kernel/cdi/cdi_bios.o
 .bss           0x00145314        0x0 object_files/kernel/filesystem/fsmanager.o
 .bss           0x00145314        0x0 object_files/kernel/filesystem/fat.o
 .bss           0x00145314        0x0 object_files/kernel/filesystem/ramdisk.o
 .bss           0x00145314        0x0 object_files/kernel/filesystem/fat12.o
 .bss           0x00145314        0x0 object_files/kernel/hid/keyboard.o
 .bss.PRINT.2219
                0x00145314        0x1 object_files/kernel/hid/keyboard.o
 .bss.prevScancode.2206
                0x00145315        0x1 object_files/kernel/hid/keyboard.o
 .bss.LED       0x00145316        0x1 object_files/kernel/hid/keyboard.o
 *fill*         0x00145317        0x9 
 .bss.pressedKeys
                0x00145320       0x6a object_files/kernel/hid/keyboard.o
 .bss           0x0014538a        0x0 object_files/kernel/hid/mouse.o
 .bss.erroroccurred.2108
                0x0014538a        0x1 object_files/kernel/hid/mouse.o
 *fill*         0x0014538b        0x1 
 .bss.bytes.2106
                0x0014538c        0x4 object_files/kernel/hid/mouse.o
 .bss.bytecounter.2105
                0x00145390        0x1 object_files/kernel/hid/mouse.o
 *fill*         0x00145391        0x3 
 .bss.mouse_buttons
                0x00145394        0x4 object_files/kernel/hid/mouse.o
                0x00145394                mouse_buttons
 .bss.mouse_zh  0x00145398        0x4 object_files/kernel/hid/mouse.o
                0x00145398                mouse_zh
 .bss.mouse_zv  0x0014539c        0x4 object_files/kernel/hid/mouse.o
                0x0014539c                mouse_zv
 .bss.mouse_y   0x001453a0        0x4 object_files/kernel/hid/mouse.o
                0x001453a0                mouse_y
 .bss.mouse_x   0x001453a4        0x4 object_files/kernel/hid/mouse.o
                0x001453a4                mouse_x
 .bss.mousetype
                0x001453a8        0x4 object_files/kernel/hid/mouse.o
                0x001453a8                mousetype
 .bss           0x001453ac        0x0 object_files/kernel/hid/usb_hid.o
 .bss           0x001453ac        0x0 object_files/kernel/netprotocol/udp.o
 .bss.udpPorts  0x001453ac        0x8 object_files/kernel/netprotocol/udp.o
 .bss           0x001453b4        0x0 object_files/kernel/netprotocol/icmp.o
 .bss.count.2104
                0x001453b4        0x2 object_files/kernel/netprotocol/icmp.o
 .bss           0x001453b6        0x0 object_files/kernel/netprotocol/ipv4.o
 .bss           0x001453b6        0x0 object_files/kernel/netprotocol/ipv6.o
 .bss           0x001453b6        0x0 object_files/kernel/netprotocol/ethernet.o
 .bss           0x001453b6        0x0 object_files/kernel/netprotocol/arp.o
 .bss           0x001453b6        0x0 object_files/kernel/netprotocol/tcp.o
 *fill*         0x001453b6        0x2 
 .bss.tcpConnections
                0x001453b8        0x8 object_files/kernel/netprotocol/tcp.o
 .bss           0x001453c0        0x0 object_files/kernel/netprotocol/dhcp.o
 .bss           0x001453c0        0x0 object_files/kernel/network/e1000.o
 .bss           0x001453c0        0x0 object_files/kernel/network/netutils.o
 .bss           0x001453c0        0x0 object_files/kernel/network/network.o
 .bss.adapters  0x001453c0        0x8 object_files/kernel/network/network.o
 .bss.lastPacket
                0x001453c8        0x6 object_files/kernel/network/network.o
                0x001453c8                lastPacket
 .bss           0x001453ce        0x0 object_files/kernel/network/rtl8168.o
 .bss           0x001453ce        0x0 object_files/kernel/network/e1000_cdi.o
 .bss           0x001453ce        0x0 object_files/kernel/network/pcnet.o
 .bss           0x001453ce        0x0 object_files/kernel/network/rtl8139.o
 .bss           0x001453ce        0x0 object_files/kernel/storage/hdd.o
 .bss           0x001453ce        0x0 object_files/kernel/storage/ata.o
 .bss           0x001453ce        0x0 object_files/kernel/storage/usb_msd.o
 .bss           0x001453ce        0x0 object_files/kernel/storage/devicemanager.o
 *fill*         0x001453ce        0x2 
 .bss.tempBuf.3208
                0x001453d0        0xc object_files/kernel/storage/devicemanager.o
 .bss.currCache.3179
                0x001453dc        0x4 object_files/kernel/storage/devicemanager.o
 .bss.tempBuf.3142
                0x001453e0        0xc object_files/kernel/storage/devicemanager.o
 .bss.temp.3067
                0x001453ec        0x3 object_files/kernel/storage/devicemanager.o
 *fill*         0x001453ef        0x1 
 .bss.cacheMutex
                0x001453f0        0x8 object_files/kernel/storage/devicemanager.o
 .bss.caches    0x001453f8        0x4 object_files/kernel/storage/devicemanager.o
 .bss.numCaches
                0x001453fc        0x4 object_files/kernel/storage/devicemanager.o
 .bss.systemPartition
                0x00145400        0x4 object_files/kernel/storage/devicemanager.o
                0x00145400                systemPartition
 .bss.devmgr_dpMutex
                0x00145404        0x8 object_files/kernel/storage/devicemanager.o
 .bss.ports     0x0014540c        0xc object_files/kernel/storage/devicemanager.o
                0x0014540c                ports
 .bss.disks     0x00145418        0xc object_files/kernel/storage/devicemanager.o
                0x00145418                disks
 .bss           0x00145424        0x0 object_files/kernel/storage/flpydsk.o
 .bss.flpydsk_version
                0x00145424        0x1 object_files/kernel/storage/flpydsk.o
 *fill*         0x00145425        0x3 
 .bss.floppyDrive
                0x00145428        0x8 object_files/kernel/storage/flpydsk.o
 .bss.DMA_mutex
                0x00145430        0x8 object_files/kernel/storage/flpydsk.o
 .bss           0x00145438        0x0 object_files/kernel/tasking/synchronisation.o
 .bss           0x00145438        0x0 object_files/kernel/tasking/task.o
 .bss.tasks     0x00145438        0x8 object_files/kernel/tasking/task.o
                0x00145438                tasks
 .bss.task_switching
                0x00145440        0x1 object_files/kernel/tasking/task.o
                0x00145440                task_switching
 .bss           0x00145441        0x0 object_files/kernel/tasking/scheduler.o
 *fill*         0x00145441        0x3 
 .bss.freetimeTask
                0x00145444        0x4 object_files/kernel/tasking/scheduler.o
 .bss.blockedTasks
                0x00145448        0x8 object_files/kernel/tasking/scheduler.o
 .bss.runningTasks
                0x00145450        0x8 object_files/kernel/tasking/scheduler.o
 .bss           0x00145458        0x0 object_files/kernel/tasking/vm86.o
 .bss.v86_if    0x00145458        0x1 object_files/kernel/tasking/vm86.o
 .bss           0x00145459        0x0 object_files/kernel/usb/usb_hc.o
 .bss           0x00145459        0x0 object_files/kernel/usb/ehci.o
 .bss.numPorts.2835
                0x00145459        0x1 object_files/kernel/usb/ehci.o
 *fill*         0x0014545a        0x2 
 .bss.ehci      0x0014545c        0x8 object_files/kernel/usb/ehci.o
 .bss           0x00145464        0x0 object_files/kernel/usb/usb_hub.o
 .bss.mutex     0x00145464        0x8 object_files/kernel/usb/usb_hub.o
 .bss.hubs      0x0014546c        0x8 object_files/kernel/usb/usb_hub.o
 .bss           0x00145474        0x0 object_files/kernel/usb/ohci.o
 .bss.numHC.2753
                0x00145474        0x1 object_files/kernel/usb/ohci.o
 *fill*         0x00145475        0x3 
 .bss.ohci      0x00145478        0x8 object_files/kernel/usb/ohci.o
 .bss           0x00145480        0x0 object_files/kernel/usb/uhci.o
 .bss.toggle.2873
                0x00145480        0x1 object_files/kernel/usb/uhci.o
 .bss.numHC.2721
                0x00145481        0x1 object_files/kernel/usb/uhci.o
 *fill*         0x00145482        0x2 
 .bss.uhci      0x00145484        0x8 object_files/kernel/usb/uhci.o
 .bss           0x0014548c        0x0 object_files/kernel/usb/xhci.o
 .bss.numPorts.3211
                0x0014548c        0x1 object_files/kernel/usb/xhci.o
 *fill*         0x0014548d        0x3 
 .bss.xhci      0x00145490        0x8 object_files/kernel/usb/xhci.o
 .bss           0x00145498        0x0 object_files/kernel/usb/ehciQHqTD.o
 .bss           0x00145498        0x0 object_files/kernel/usb/usb.o
 .bss.usb_interruptTransfers
                0x00145498        0x8 object_files/kernel/usb/usb.o
                0x00145498                usb_interruptTransfers
 .bss           0x001454a0        0x0 object_files/kernel/util/array.o
 .bss           0x001454a0        0x0 object_files/kernel/util/util.o
 .bss.seed      0x001454a0        0x4 object_files/kernel/util/util.o
 .bss           0x001454a4        0x0 object_files/kernel/util/todo_list.o
 .bss           0x001454a4        0x0 object_files/kernel/util/list.o
 .bss           0x001454a4        0x0 object_files/kernel/util/ring.o
 .bss           0x001454a4        0x0 object_files/kernel/video/videomanager.o
 .bss.video_currentMode
                0x001454a4        0x4 object_files/kernel/video/videomanager.o
                0x001454a4                video_currentMode
 .bss.basicVideoDevices
                0x001454a8        0x8 object_files/kernel/video/videomanager.o
 .bss           0x001454b0        0x0 object_files/kernel/video/gui_window.o
 .bss.wid.1594  0x001454b0        0x2 object_files/kernel/video/gui_window.o
 *fill*         0x001454b2        0x2 
 .bss.window_list
                0x001454b4        0xc object_files/kernel/video/gui_window.o
                0x001454b4                window_list
 .bss.current_window
                0x001454c0        0x4 object_files/kernel/video/gui_window.o
 .bss           0x001454c4        0x0 object_files/kernel/video/usb_video.o
 .bss.oldSCR.2923
                0x001454c4        0x4 object_files/kernel/video/usb_video.o
 .bss           0x001454c8        0x0 object_files/kernel/video/gui.o
 .bss           0x001454c8        0x0 object_files/kernel/video/console.o
 .bss.console_currentStack
                0x001454c8        0x4 object_files/kernel/video/console.o
                0x001454c8                console_currentStack
 .bss.consoleStacks
                0x001454cc        0x8 object_files/kernel/video/console.o
 .bss           0x001454d4        0x0 object_files/kernel/video/video.o
 .bss.screenCache
                0x001454d4        0x4 object_files/kernel/video/video.o
 .bss.videoLock
                0x001454d8        0x8 object_files/kernel/video/video.o
 .bss.cursor    0x001454e0        0x4 object_files/kernel/video/video.o
 *fill*         0x001454e4       0x1c 
 .bss.infoBar   0x00145500       0xf3 object_files/kernel/video/video.o
 *fill*         0x001455f3        0x1 
 .bss.videomode
                0x001455f4        0x4 object_files/kernel/video/video.o
                0x001455f4                videomode
 .bss           0x001455f8        0x0 object_files/kernel/video/vbe.o
 .bss.vbe_pd    0x001455f8        0x4 object_files/kernel/video/vbe.o
 .bss.vgaIB     0x001455fc        0x4 object_files/kernel/video/vbe.o
 .bss           0x00145600        0x0 object_files/kernel/video/videoutils.o
 .bss.curPos    0x00145600        0x4 object_files/kernel/video/videoutils.o
 .bss           0x00145604        0x0 object_files/kernel/video/gui_button.o
                0x00145604                _bss_end = .
 *(.bss)

.cdi            0x00145604        0x4
                0x00145604                _cdi_start = .
 *(.cdi*)
 .cdi           0x00145604        0x4 object_files/kernel/network/e1000_cdi.o
                0x00145608                _cdi_end = .
 *(.cdi)

/DISCARD/
 *(.eh_frame*)
                0x00145608                _kernel_end = .
OUTPUT(kernel/KERNEL.BIN binary)

.comment        0x00000000      0x708
 .comment       0x00000000       0x12 object_files/kernel/ckernel.o
 .comment       0x00000012       0x12 object_files/kernel/power_management.o
 .comment       0x00000024       0x12 object_files/kernel/pe.o
 .comment       0x00000036       0x12 object_files/kernel/executable.o
 .comment       0x00000048       0x12 object_files/kernel/userheap.o
 .comment       0x0000005a       0x12 object_files/kernel/events.o
 .comment       0x0000006c       0x12 object_files/kernel/syscall.o
 .comment       0x0000007e       0x12 object_files/kernel/dma.o
 .comment       0x00000090       0x12 object_files/kernel/paging.o
 .comment       0x000000a2       0x12 object_files/kernel/timer.o
 .comment       0x000000b4       0x12 object_files/kernel/cpu.o
 .comment       0x000000c6       0x12 object_files/kernel/ipc.o
 .comment       0x000000d8       0x12 object_files/kernel/serial.o
 .comment       0x000000ea       0x12 object_files/kernel/descriptor_tables.o
 .comment       0x000000fc       0x12 object_files/kernel/cmos.o
 .comment       0x0000010e       0x12 object_files/kernel/elf.o
 .comment       0x00000120       0x12 object_files/kernel/irq.o
 .comment       0x00000132       0x12 object_files/kernel/pci.o
 .comment       0x00000144       0x12 object_files/kernel/log.o
 .comment       0x00000156       0x12 object_files/kernel/time.o
 .comment       0x00000168       0x12 object_files/kernel/apic.o
 .comment       0x0000017a       0x12 object_files/kernel/kheap.o
 .comment       0x0000018c       0x12 object_files/kernel/acpi/parser.o
 .comment       0x0000019e       0x12 object_files/kernel/acpi/acpi.o
 .comment       0x000001b0       0x12 object_files/kernel/acpi/fadt.o
 .comment       0x000001c2       0x12 object_files/kernel/acpi/madt.o
 .comment       0x000001d4       0x12 object_files/kernel/audio/wav.o
 .comment       0x000001e6       0x12 object_files/kernel/audio/sb16.o
 .comment       0x000001f8       0x12 object_files/kernel/audio/ac97_intel.o
 .comment       0x0000020a       0x12 object_files/kernel/audio/audio.o
 .comment       0x0000021c       0x12 object_files/kernel/audio/sys_speaker.o
 .comment       0x0000022e       0x12 object_files/kernel/audio/ac97_via.o
 .comment       0x00000240       0x12 object_files/kernel/cdi/cdi.o
 .comment       0x00000252       0x12 object_files/kernel/cdi/cdi_mempool.o
 .comment       0x00000264       0x12 object_files/kernel/cdi/cdi_net.o
 .comment       0x00000276       0x12 object_files/kernel/cdi/cdi_lists.o
 .comment       0x00000288       0x12 object_files/kernel/cdi/cdi_mem.o
 .comment       0x0000029a       0x12 object_files/kernel/cdi/cdi_scsi.o
 .comment       0x000002ac       0x12 object_files/kernel/cdi/cdi_audio.o
 .comment       0x000002be       0x12 object_files/kernel/cdi/cdi_cache.o
 .comment       0x000002d0       0x12 object_files/kernel/cdi/cdi_dma.o
 .comment       0x000002e2       0x12 object_files/kernel/cdi/cdi_usb.o
 .comment       0x000002f4       0x12 object_files/kernel/cdi/cdi_storage.o
 .comment       0x00000306       0x12 object_files/kernel/cdi/cdi_pci.o
 .comment       0x00000318       0x12 object_files/kernel/cdi/cdi_misc.o
 .comment       0x0000032a       0x12 object_files/kernel/cdi/cdi_fs.o
 .comment       0x0000033c       0x12 object_files/kernel/cdi/cdi_bios.o
 .comment       0x0000034e       0x12 object_files/kernel/filesystem/fsmanager.o
 .comment       0x00000360       0x12 object_files/kernel/filesystem/fat.o
 .comment       0x00000372       0x12 object_files/kernel/filesystem/ramdisk.o
 .comment       0x00000384       0x12 object_files/kernel/filesystem/fat12.o
 .comment       0x00000396       0x12 object_files/kernel/hid/keyboard.o
 .comment       0x000003a8       0x12 object_files/kernel/hid/mouse.o
 .comment       0x000003ba       0x12 object_files/kernel/hid/usb_hid.o
 .comment       0x000003cc       0x12 object_files/kernel/netprotocol/udp.o
 .comment       0x000003de       0x12 object_files/kernel/netprotocol/icmp.o
 .comment       0x000003f0       0x12 object_files/kernel/netprotocol/ipv4.o
 .comment       0x00000402       0x12 object_files/kernel/netprotocol/ipv6.o
 .comment       0x00000414       0x12 object_files/kernel/netprotocol/ethernet.o
 .comment       0x00000426       0x12 object_files/kernel/netprotocol/arp.o
 .comment       0x00000438       0x12 object_files/kernel/netprotocol/tcp.o
 .comment       0x0000044a       0x12 object_files/kernel/netprotocol/dhcp.o
 .comment       0x0000045c       0x12 object_files/kernel/network/e1000.o
 .comment       0x0000046e       0x12 object_files/kernel/network/netutils.o
 .comment       0x00000480       0x12 object_files/kernel/network/network.o
 .comment       0x00000492       0x12 object_files/kernel/network/rtl8168.o
 .comment       0x000004a4       0x12 object_files/kernel/network/e1000_cdi.o
 .comment       0x000004b6       0x12 object_files/kernel/network/pcnet.o
 .comment       0x000004c8       0x12 object_files/kernel/network/rtl8139.o
 .comment       0x000004da       0x12 object_files/kernel/storage/hdd.o
 .comment       0x000004ec       0x12 object_files/kernel/storage/ata.o
 .comment       0x000004fe       0x12 object_files/kernel/storage/usb_msd.o
 .comment       0x00000510       0x12 object_files/kernel/storage/devicemanager.o
 .comment       0x00000522       0x12 object_files/kernel/storage/flpydsk.o
 .comment       0x00000534       0x12 object_files/kernel/tasking/synchronisation.o
 .comment       0x00000546       0x12 object_files/kernel/tasking/task.o
 .comment       0x00000558       0x12 object_files/kernel/tasking/scheduler.o
 .comment       0x0000056a       0x12 object_files/kernel/tasking/vm86.o
 .comment       0x0000057c       0x12 object_files/kernel/usb/usb_hc.o
 .comment       0x0000058e       0x12 object_files/kernel/usb/ehci.o
 .comment       0x000005a0       0x12 object_files/kernel/usb/usb_hub.o
 .comment       0x000005b2       0x12 object_files/kernel/usb/ohci.o
 .comment       0x000005c4       0x12 object_files/kernel/usb/uhci.o
 .comment       0x000005d6       0x12 object_files/kernel/usb/xhci.o
 .comment       0x000005e8       0x12 object_files/kernel/usb/ehciQHqTD.o
 .comment       0x000005fa       0x12 object_files/kernel/usb/usb.o
 .comment       0x0000060c       0x12 object_files/kernel/util/array.o
 .comment       0x0000061e       0x12 object_files/kernel/util/util.o
 .comment       0x00000630       0x12 object_files/kernel/util/todo_list.o
 .comment       0x00000642       0x12 object_files/kernel/util/list.o
 .comment       0x00000654       0x12 object_files/kernel/util/ring.o
 .comment       0x00000666       0x12 object_files/kernel/video/videomanager.o
 .comment       0x00000678       0x12 object_files/kernel/video/gui_window.o
 .comment       0x0000068a       0x12 object_files/kernel/video/usb_video.o
 .comment       0x0000069c       0x12 object_files/kernel/video/gui.o
 .comment       0x000006ae       0x12 object_files/kernel/video/console.o
 .comment       0x000006c0       0x12 object_files/kernel/video/video.o
 .comment       0x000006d2       0x12 object_files/kernel/video/vbe.o
 .comment       0x000006e4       0x12 object_files/kernel/video/videoutils.o
 .comment       0x000006f6       0x12 object_files/kernel/video/gui_button.o
